---
triple:          'arm64-apple-darwin'
binary-path:     main
relocations:
  - { offset: 0x9B2B, size: 0x8, addend: 0x0, symName: __ZStL8__ioinit, symObjAddr: 0x42277, symBinAddr: 0x100028000, symSize: 0x0 }
  - { offset: 0x9EA0, size: 0x8, addend: 0x0, symName: __Z11functionMapB5cxx11, symObjAddr: 0x42278, symBinAddr: 0x100028058, symSize: 0x0 }
  - { offset: 0xA0C4, size: 0x8, addend: 0x0, symName: __ZNSt3mapINSt7__cxx1112basic_stringIcSt11char_traitsIcESaIcEEEPFvvESt4lessIS5_ESaISt4pairIKS5_S7_EEED1Ev, symObjAddr: 0x2464, symBinAddr: 0x100003E60, symSize: 0x20 }
  - { offset: 0xA143, size: 0x8, addend: 0x0, symName: __ZNSt4pairIKNSt7__cxx1112basic_stringIcSt11char_traitsIcESaIcEEEPFvvEEC1ERKS9_, symObjAddr: 0x242C, symBinAddr: 0x100003E28, symSize: 0x38 }
  - { offset: 0xA16F, size: 0x8, addend: 0x0, symName: __ZNSt15__new_allocatorISt13_Rb_tree_nodeISt4pairIKNSt7__cxx1112basic_stringIcSt11char_traitsIcESaIcEEEPFvvEEEE8allocateEmPKv, symObjAddr: 0x2394, symBinAddr: 0x100003D90, symSize: 0x98 }
  - { offset: 0xA1F5, size: 0x8, addend: 0x0, symName: __ZNK9__gnu_cxx16__aligned_membufISt4pairIKNSt7__cxx1112basic_stringIcSt11char_traitsIcESaIcEEEPFvvEEE7_M_addrEv, symObjAddr: 0x2380, symBinAddr: 0x100003D7C, symSize: 0x14 }
  - { offset: 0xA27E, size: 0x8, addend: 0x0, symName: __ZNK9__gnu_cxx16__aligned_membufISt4pairIKNSt7__cxx1112basic_stringIcSt11char_traitsIcESaIcEEEPFvvEEE6_M_ptrEv, symObjAddr: 0x2364, symBinAddr: 0x100003D60, symSize: 0x1C }
  - { offset: 0xA2AA, size: 0x8, addend: 0x0, symName: __ZN9__gnu_cxx16__aligned_membufISt4pairIKNSt7__cxx1112basic_stringIcSt11char_traitsIcESaIcEEEPFvvEEE7_M_addrEv, symObjAddr: 0x2350, symBinAddr: 0x100003D4C, symSize: 0x14 }
  - { offset: 0xA33C, size: 0x8, addend: 0x0, symName: __ZSt7forwardINSt7__cxx1112basic_stringIcSt11char_traitsIcESaIcEEEEOT_RNSt16remove_referenceIS6_E4typeE, symObjAddr: 0x233C, symBinAddr: 0x100003D38, symSize: 0x14 }
  - { offset: 0xA370, size: 0x8, addend: 0x0, symName: __ZNSt8_Rb_treeINSt7__cxx1112basic_stringIcSt11char_traitsIcESaIcEEESt4pairIKS5_PFvvEESt10_Select1stISA_ESt4lessIS5_ESaISA_EE17_M_construct_nodeIJRKSA_EEEvPSt13_Rb_tree_nodeISA_EDpOT_, symObjAddr: 0x2238, symBinAddr: 0x100003C34, symSize: 0x104 }
  - { offset: 0xA421, size: 0x8, addend: 0x0, symName: __ZNSt8_Rb_treeINSt7__cxx1112basic_stringIcSt11char_traitsIcESaIcEEESt4pairIKS5_PFvvEESt10_Select1stISA_ESt4lessIS5_ESaISA_EE11_M_get_nodeEv, symObjAddr: 0x21FC, symBinAddr: 0x100003BF8, symSize: 0x3C }
  - { offset: 0xA47D, size: 0x8, addend: 0x0, symName: __ZSt7forwardIRPSt13_Rb_tree_nodeISt4pairIKNSt7__cxx1112basic_stringIcSt11char_traitsIcESaIcEEEPFvvEEEEOT_RNSt16remove_referenceISF_E4typeE, symObjAddr: 0x21E8, symBinAddr: 0x100003BE4, symSize: 0x14 }
  - { offset: 0xA4B1, size: 0x8, addend: 0x0, symName: __ZNKSt13_Rb_tree_nodeISt4pairIKNSt7__cxx1112basic_stringIcSt11char_traitsIcESaIcEEEPFvvEEE9_M_valptrEv, symObjAddr: 0x21C8, symBinAddr: 0x100003BC4, symSize: 0x20 }
  - { offset: 0xA4D9, size: 0x8, addend: 0x0, symName: __ZNSt15__new_allocatorISt13_Rb_tree_nodeISt4pairIKNSt7__cxx1112basic_stringIcSt11char_traitsIcESaIcEEEPFvvEEEE10deallocateEPSC_m, symObjAddr: 0x218C, symBinAddr: 0x100003B88, symSize: 0x3C }
  - { offset: 0xA548, size: 0x8, addend: 0x0, symName: __ZN9__gnu_cxx16__aligned_membufISt4pairIKNSt7__cxx1112basic_stringIcSt11char_traitsIcESaIcEEEPFvvEEE6_M_ptrEv, symObjAddr: 0x2170, symBinAddr: 0x100003B6C, symSize: 0x1C }
  - { offset: 0xA5EE, size: 0x8, addend: 0x0, symName: __ZNSt8_Rb_treeINSt7__cxx1112basic_stringIcSt11char_traitsIcESaIcEEESt4pairIKS5_PFvvEESt10_Select1stISA_ESt4lessIS5_ESaISA_EE14_M_create_nodeIJRKSA_EEEPSt13_Rb_tree_nodeISA_EDpOT_, symObjAddr: 0x2130, symBinAddr: 0x100003B2C, symSize: 0x40 }
  - { offset: 0xA643, size: 0x8, addend: 0x0, symName: __ZSt7forwardIRPSt18_Rb_tree_node_baseEOT_RNSt16remove_referenceIS3_E4typeE, symObjAddr: 0x211C, symBinAddr: 0x100003B18, symSize: 0x14 }
  - { offset: 0xA6BB, size: 0x8, addend: 0x0, symName: __ZNSt4pairIPSt18_Rb_tree_node_baseS1_EC1IRPSt13_Rb_tree_nodeIS_IKNSt7__cxx1112basic_stringIcSt11char_traitsIcESaIcEEEPFvvEEERS1_Lb1EEEOT_OT0_, symObjAddr: 0x20D4, symBinAddr: 0x100003AD0, symSize: 0x48 }
  - { offset: 0xA704, size: 0x8, addend: 0x0, symName: __ZSteqRKSt17_Rb_tree_iteratorISt4pairIKNSt7__cxx1112basic_stringIcSt11char_traitsIcESaIcEEEPFvvEEESD_, symObjAddr: 0x20A4, symBinAddr: 0x100003AA0, symSize: 0x30 }
  - { offset: 0xA742, size: 0x8, addend: 0x0, symName: __ZNSt8_Rb_treeINSt7__cxx1112basic_stringIcSt11char_traitsIcESaIcEEESt4pairIKS5_PFvvEESt10_Select1stISA_ESt4lessIS5_ESaISA_EE5beginEv, symObjAddr: 0x207C, symBinAddr: 0x100003A78, symSize: 0x28 }
  - { offset: 0xA767, size: 0x8, addend: 0x0, symName: __ZStltIcSt11char_traitsIcESaIcEEbRKNSt7__cxx1112basic_stringIT_T0_T1_EESA_, symObjAddr: 0x2050, symBinAddr: 0x100003A4C, symSize: 0x2C }
  - { offset: 0xA7BD, size: 0x8, addend: 0x0, symName: __ZNSt8_Rb_treeINSt7__cxx1112basic_stringIcSt11char_traitsIcESaIcEEESt4pairIKS5_PFvvEESt10_Select1stISA_ESt4lessIS5_ESaISA_EE6_S_keyEPKSt13_Rb_tree_nodeISA_E, symObjAddr: 0x2028, symBinAddr: 0x100003A24, symSize: 0x28 }
  - { offset: 0xA842, size: 0x8, addend: 0x0, symName: __ZNSt13_Rb_tree_nodeISt4pairIKNSt7__cxx1112basic_stringIcSt11char_traitsIcESaIcEEEPFvvEEE9_M_valptrEv, symObjAddr: 0x2008, symBinAddr: 0x100003A04, symSize: 0x20 }
  - { offset: 0xA86A, size: 0x8, addend: 0x0, symName: __ZNSt8_Rb_treeINSt7__cxx1112basic_stringIcSt11char_traitsIcESaIcEEESt4pairIKS5_PFvvEESt10_Select1stISA_ESt4lessIS5_ESaISA_EE21_M_get_Node_allocatorEv, symObjAddr: 0x1FF4, symBinAddr: 0x1000039F0, symSize: 0x14 }
  - { offset: 0xA88F, size: 0x8, addend: 0x0, symName: __ZSt19__relocate_object_aINSt7__cxx1112basic_stringIcSt11char_traitsIcESaIcEEES5_SaIS5_EEvPT_PT0_RT1_, symObjAddr: 0x1F24, symBinAddr: 0x100003920, symSize: 0xD0 }
  - { offset: 0xA9BD, size: 0x8, addend: 0x0, symName: __ZSt3minImERKT_S2_S2_, symObjAddr: 0x1EEC, symBinAddr: 0x1000038E8, symSize: 0x38 }
  - { offset: 0xAA1F, size: 0x8, addend: 0x0, symName: __ZNKSt8_Rb_treeINSt7__cxx1112basic_stringIcSt11char_traitsIcESaIcEEESt4pairIKS5_PFvvEESt10_Select1stISA_ESt4lessIS5_ESaISA_EE11_Alloc_nodeclIRKSA_EEPSt13_Rb_tree_nodeISA_EOT_, symObjAddr: 0x1EB0, symBinAddr: 0x1000038AC, symSize: 0x3C }
  - { offset: 0xAA61, size: 0x8, addend: 0x0, symName: __ZNSt17_Rb_tree_iteratorISt4pairIKNSt7__cxx1112basic_stringIcSt11char_traitsIcESaIcEEEPFvvEEEppEv, symObjAddr: 0x1E80, symBinAddr: 0x10000387C, symSize: 0x30 }
  - { offset: 0xAA89, size: 0x8, addend: 0x0, symName: __ZNSt17_Rb_tree_iteratorISt4pairIKNSt7__cxx1112basic_stringIcSt11char_traitsIcESaIcEEEPFvvEEEmmEv, symObjAddr: 0x1E50, symBinAddr: 0x10000384C, symSize: 0x30 }
  - { offset: 0xAAF5, size: 0x8, addend: 0x0, symName: __ZNSt4pairIPSt18_Rb_tree_node_baseS1_EC1IRS1_S4_Lb1EEEOT_OT0_, symObjAddr: 0x1E08, symBinAddr: 0x100003804, symSize: 0x48 }
  - { offset: 0xAB3B, size: 0x8, addend: 0x0, symName: __ZNSt8_Rb_treeINSt7__cxx1112basic_stringIcSt11char_traitsIcESaIcEEESt4pairIKS5_PFvvEESt10_Select1stISA_ESt4lessIS5_ESaISA_EE11_M_leftmostEv, symObjAddr: 0x1DF0, symBinAddr: 0x1000037EC, symSize: 0x18 }
  - { offset: 0xAB63, size: 0x8, addend: 0x0, symName: __ZNSt8_Rb_treeINSt7__cxx1112basic_stringIcSt11char_traitsIcESaIcEEESt4pairIKS5_PFvvEESt10_Select1stISA_ESt4lessIS5_ESaISA_EE24_M_get_insert_unique_posERS7_, symObjAddr: 0x1C98, symBinAddr: 0x100003694, symSize: 0x158 }
  - { offset: 0xAC29, size: 0x8, addend: 0x0, symName: __ZNSt4pairIPSt18_Rb_tree_node_baseS1_EC1IS1_S1_Lb1EEERKS1_S5_, symObjAddr: 0x1C5C, symBinAddr: 0x100003658, symSize: 0x3C }
  - { offset: 0xAC6F, size: 0x8, addend: 0x0, symName: __ZNKSt4lessINSt7__cxx1112basic_stringIcSt11char_traitsIcESaIcEEEEclERKS5_S8_, symObjAddr: 0x1C34, symBinAddr: 0x100003630, symSize: 0x28 }
  - { offset: 0xACB6, size: 0x8, addend: 0x0, symName: __ZNSt8_Rb_treeINSt7__cxx1112basic_stringIcSt11char_traitsIcESaIcEEESt4pairIKS5_PFvvEESt10_Select1stISA_ESt4lessIS5_ESaISA_EE6_S_keyEPKSt18_Rb_tree_node_base, symObjAddr: 0x1C18, symBinAddr: 0x100003614, symSize: 0x1C }
  - { offset: 0xACE3, size: 0x8, addend: 0x0, symName: __ZNSt8_Rb_treeINSt7__cxx1112basic_stringIcSt11char_traitsIcESaIcEEESt4pairIKS5_PFvvEESt10_Select1stISA_ESt4lessIS5_ESaISA_EE12_M_rightmostEv, symObjAddr: 0x1C00, symBinAddr: 0x1000035FC, symSize: 0x18 }
  - { offset: 0xAD0B, size: 0x8, addend: 0x0, symName: __ZNKSt8_Rb_treeINSt7__cxx1112basic_stringIcSt11char_traitsIcESaIcEEESt4pairIKS5_PFvvEESt10_Select1stISA_ESt4lessIS5_ESaISA_EE4sizeEv, symObjAddr: 0x1BE8, symBinAddr: 0x1000035E4, symSize: 0x18 }
  - { offset: 0xAD33, size: 0x8, addend: 0x0, symName: __ZNSt8_Rb_treeINSt7__cxx1112basic_stringIcSt11char_traitsIcESaIcEEESt4pairIKS5_PFvvEESt10_Select1stISA_ESt4lessIS5_ESaISA_EE6_M_endEv, symObjAddr: 0x1BD0, symBinAddr: 0x1000035CC, symSize: 0x18 }
  - { offset: 0xAD5B, size: 0x8, addend: 0x0, symName: __ZNKSt23_Rb_tree_const_iteratorISt4pairIKNSt7__cxx1112basic_stringIcSt11char_traitsIcESaIcEEEPFvvEEE13_M_const_castEv, symObjAddr: 0x1BA8, symBinAddr: 0x1000035A4, symSize: 0x28 }
  - { offset: 0xAD83, size: 0x8, addend: 0x0, symName: __ZNSt8_Rb_treeINSt7__cxx1112basic_stringIcSt11char_traitsIcESaIcEEESt4pairIKS5_PFvvEESt10_Select1stISA_ESt4lessIS5_ESaISA_EE11_M_put_nodeEPSt13_Rb_tree_nodeISA_E, symObjAddr: 0x1B5C, symBinAddr: 0x100003558, symSize: 0x4C }
  - { offset: 0xADEF, size: 0x8, addend: 0x0, symName: __ZNSt8_Rb_treeINSt7__cxx1112basic_stringIcSt11char_traitsIcESaIcEEESt4pairIKS5_PFvvEESt10_Select1stISA_ESt4lessIS5_ESaISA_EE15_M_destroy_nodeEPSt13_Rb_tree_nodeISA_E, symObjAddr: 0x1AFC, symBinAddr: 0x1000034F8, symSize: 0x60 }
  - { offset: 0xAE94, size: 0x8, addend: 0x0, symName: __ZSt14__relocate_a_1IPNSt7__cxx1112basic_stringIcSt11char_traitsIcESaIcEEES6_SaIS5_EET0_T_S9_S8_RT1_, symObjAddr: 0x1A78, symBinAddr: 0x100003474, symSize: 0x84 }
  - { offset: 0xAF1D, size: 0x8, addend: 0x0, symName: __ZSt12__niter_baseIPNSt7__cxx1112basic_stringIcSt11char_traitsIcESaIcEEEET_S7_, symObjAddr: 0x1A64, symBinAddr: 0x100003460, symSize: 0x14 }
  - { offset: 0xAF53, size: 0x8, addend: 0x0, symName: __ZNSt15__new_allocatorINSt7__cxx1112basic_stringIcSt11char_traitsIcESaIcEEEE8allocateEmPKv, symObjAddr: 0x19E8, symBinAddr: 0x1000033E4, symSize: 0x7C }
  - { offset: 0xAFD5, size: 0x8, addend: 0x0, symName: __ZNKSt12_Vector_baseINSt7__cxx1112basic_stringIcSt11char_traitsIcESaIcEEESaIS5_EE19_M_get_Tp_allocatorEv, symObjAddr: 0x19D4, symBinAddr: 0x1000033D0, symSize: 0x14 }
  - { offset: 0xAFFA, size: 0x8, addend: 0x0, symName: __ZNSt6vectorINSt7__cxx1112basic_stringIcSt11char_traitsIcESaIcEEESaIS5_EE11_S_max_sizeERKS6_, symObjAddr: 0x1980, symBinAddr: 0x10000337C, symSize: 0x54 }
  - { offset: 0xB0AD, size: 0x8, addend: 0x0, symName: __ZSt8_DestroyINSt7__cxx1112basic_stringIcSt11char_traitsIcESaIcEEEEvPT_, symObjAddr: 0x1960, symBinAddr: 0x10000335C, symSize: 0x20 }
  - { offset: 0xB0DE, size: 0x8, addend: 0x0, symName: __ZSt11__addressofINSt7__cxx1112basic_stringIcSt11char_traitsIcESaIcEEEEPT_RS6_, symObjAddr: 0x194C, symBinAddr: 0x100003348, symSize: 0x14 }
  - { offset: 0xB118, size: 0x8, addend: 0x0, symName: __ZNSt8_Rb_treeINSt7__cxx1112basic_stringIcSt11char_traitsIcESaIcEEESt4pairIKS5_PFvvEESt10_Select1stISA_ESt4lessIS5_ESaISA_EE10_M_insert_IRKSA_NSG_11_Alloc_nodeEEESt17_Rb_tree_iteratorISA_EPSt18_Rb_tree_node_baseSO_OT_RT0_, symObjAddr: 0x185C, symBinAddr: 0x100003258, symSize: 0xF0 }
  - { offset: 0xB1BC, size: 0x8, addend: 0x0, symName: __ZSt7forwardIRKSt4pairIKNSt7__cxx1112basic_stringIcSt11char_traitsIcESaIcEEEPFvvEEEOT_RNSt16remove_referenceISD_E4typeE, symObjAddr: 0x1848, symBinAddr: 0x100003244, symSize: 0x14 }
  - { offset: 0xB1F0, size: 0x8, addend: 0x0, symName: __ZNKSt10_Select1stISt4pairIKNSt7__cxx1112basic_stringIcSt11char_traitsIcESaIcEEEPFvvEEEclERKSA_, symObjAddr: 0x1830, symBinAddr: 0x10000322C, symSize: 0x18 }
  - { offset: 0xB229, size: 0x8, addend: 0x0, symName: __ZNSt8_Rb_treeINSt7__cxx1112basic_stringIcSt11char_traitsIcESaIcEEESt4pairIKS5_PFvvEESt10_Select1stISA_ESt4lessIS5_ESaISA_EE29_M_get_insert_hint_unique_posESt23_Rb_tree_const_iteratorISA_ERS7_, symObjAddr: 0x150C, symBinAddr: 0x100002F08, symSize: 0x324 }
  - { offset: 0xB2F7, size: 0x8, addend: 0x0, symName: __ZNSt17_Rb_tree_iteratorISt4pairIKNSt7__cxx1112basic_stringIcSt11char_traitsIcESaIcEEEPFvvEEEC1EPSt18_Rb_tree_node_base, symObjAddr: 0x14E8, symBinAddr: 0x100002EE4, symSize: 0x24 }
  - { offset: 0xB323, size: 0x8, addend: 0x0, symName: __ZNKSt8_Rb_treeINSt7__cxx1112basic_stringIcSt11char_traitsIcESaIcEEESt4pairIKS5_PFvvEESt10_Select1stISA_ESt4lessIS5_ESaISA_EE9_M_mbeginEv, symObjAddr: 0x14D0, symBinAddr: 0x100002ECC, symSize: 0x18 }
  - { offset: 0xB34B, size: 0x8, addend: 0x0, symName: __ZNSt8_Rb_treeINSt7__cxx1112basic_stringIcSt11char_traitsIcESaIcEEESt4pairIKS5_PFvvEESt10_Select1stISA_ESt4lessIS5_ESaISA_EE12_M_drop_nodeEPSt13_Rb_tree_nodeISA_E, symObjAddr: 0x149C, symBinAddr: 0x100002E98, symSize: 0x34 }
  - { offset: 0xB381, size: 0x8, addend: 0x0, symName: __ZNSt8_Rb_treeINSt7__cxx1112basic_stringIcSt11char_traitsIcESaIcEEESt4pairIKS5_PFvvEESt10_Select1stISA_ESt4lessIS5_ESaISA_EE7_S_leftEPSt18_Rb_tree_node_base, symObjAddr: 0x1484, symBinAddr: 0x100002E80, symSize: 0x18 }
  - { offset: 0xB3AB, size: 0x8, addend: 0x0, symName: __ZNSt8_Rb_treeINSt7__cxx1112basic_stringIcSt11char_traitsIcESaIcEEESt4pairIKS5_PFvvEESt10_Select1stISA_ESt4lessIS5_ESaISA_EE8_S_rightEPSt18_Rb_tree_node_base, symObjAddr: 0x146C, symBinAddr: 0x100002E68, symSize: 0x18 }
  - { offset: 0xB3FC, size: 0x8, addend: 0x0, symName: __ZNSt20_Rb_tree_key_compareISt4lessINSt7__cxx1112basic_stringIcSt11char_traitsIcESaIcEEEEEC2ERKS7_, symObjAddr: 0x1454, symBinAddr: 0x100002E50, symSize: 0x18 }
  - { offset: 0xB44B, size: 0x8, addend: 0x0, symName: __ZSt4moveIRSaISt13_Rb_tree_nodeISt4pairIKNSt7__cxx1112basic_stringIcSt11char_traitsIcESaIcEEEPFvvEEEEEONSt16remove_referenceIT_E4typeEOSG_, symObjAddr: 0x1440, symBinAddr: 0x100002E3C, symSize: 0x14 }
  - { offset: 0xB4A0, size: 0x8, addend: 0x0, symName: __ZNSt15__new_allocatorISt13_Rb_tree_nodeISt4pairIKNSt7__cxx1112basic_stringIcSt11char_traitsIcESaIcEEEPFvvEEEED2Ev, symObjAddr: 0x142C, symBinAddr: 0x100002E28, symSize: 0x14 }
  - { offset: 0xB4D5, size: 0x8, addend: 0x0, symName: __ZSt12__relocate_aIPNSt7__cxx1112basic_stringIcSt11char_traitsIcESaIcEEES6_SaIS5_EET0_T_S9_S8_RT1_, symObjAddr: 0x13D0, symBinAddr: 0x100002DCC, symSize: 0x5C }
  - { offset: 0xB571, size: 0x8, addend: 0x0, symName: __ZNK9__gnu_cxx17__normal_iteratorIPNSt7__cxx1112basic_stringIcSt11char_traitsIcESaIcEEESt6vectorIS6_SaIS6_EEE4baseEv, symObjAddr: 0x13BC, symBinAddr: 0x100002DB8, symSize: 0x14 }
  - { offset: 0xB5BE, size: 0x8, addend: 0x0, symName: __ZN9__gnu_cxx17__normal_iteratorIPNSt7__cxx1112basic_stringIcSt11char_traitsIcESaIcEEESt6vectorIS6_SaIS6_EEEC1ERKS7_, symObjAddr: 0x1394, symBinAddr: 0x100002D90, symSize: 0x28 }
  - { offset: 0xB5E7, size: 0x8, addend: 0x0, symName: __ZSt3maxImERKT_S2_S2_, symObjAddr: 0x135C, symBinAddr: 0x100002D58, symSize: 0x38 }
  - { offset: 0xB62E, size: 0x8, addend: 0x0, symName: __ZNKSt6vectorINSt7__cxx1112basic_stringIcSt11char_traitsIcESaIcEEESaIS5_EE8max_sizeEv, symObjAddr: 0x133C, symBinAddr: 0x100002D38, symSize: 0x20 }
  - { offset: 0xB653, size: 0x8, addend: 0x0, symName: __ZNSt12_Destroy_auxILb0EE9__destroyIPNSt7__cxx1112basic_stringIcSt11char_traitsIcESaIcEEEEEvT_S9_, symObjAddr: 0x12F0, symBinAddr: 0x100002CEC, symSize: 0x4C }
  - { offset: 0xB696, size: 0x8, addend: 0x0, symName: __ZNSt15__new_allocatorINSt7__cxx1112basic_stringIcSt11char_traitsIcESaIcEEEE10deallocateEPS5_m, symObjAddr: 0x12C0, symBinAddr: 0x100002CBC, symSize: 0x30 }
  - { offset: 0xB709, size: 0x8, addend: 0x0, symName: __ZNSt8_Rb_treeINSt7__cxx1112basic_stringIcSt11char_traitsIcESaIcEEESt4pairIKS5_PFvvEESt10_Select1stISA_ESt4lessIS5_ESaISA_EE17_M_insert_unique_IRKSA_NSG_11_Alloc_nodeEEESt17_Rb_tree_iteratorISA_ESt23_Rb_tree_const_iteratorISA_EOT_RT0_, symObjAddr: 0x1230, symBinAddr: 0x100002C2C, symSize: 0x90 }
  - { offset: 0xB7AC, size: 0x8, addend: 0x0, symName: __ZNSt23_Rb_tree_const_iteratorISt4pairIKNSt7__cxx1112basic_stringIcSt11char_traitsIcESaIcEEEPFvvEEEC1ERKSt17_Rb_tree_iteratorISA_E, symObjAddr: 0x1208, symBinAddr: 0x100002C04, symSize: 0x28 }
  - { offset: 0xB7D8, size: 0x8, addend: 0x0, symName: __ZNSt8_Rb_treeINSt7__cxx1112basic_stringIcSt11char_traitsIcESaIcEEESt4pairIKS5_PFvvEESt10_Select1stISA_ESt4lessIS5_ESaISA_EE3endEv, symObjAddr: 0x11E0, symBinAddr: 0x100002BDC, symSize: 0x28 }
  - { offset: 0xB825, size: 0x8, addend: 0x0, symName: __ZNSt8_Rb_treeINSt7__cxx1112basic_stringIcSt11char_traitsIcESaIcEEESt4pairIKS5_PFvvEESt10_Select1stISA_ESt4lessIS5_ESaISA_EE11_Alloc_nodeC1ERSG_, symObjAddr: 0x11BC, symBinAddr: 0x100002BB8, symSize: 0x24 }
  - { offset: 0xB851, size: 0x8, addend: 0x0, symName: __ZNKSt16initializer_listISt4pairIKNSt7__cxx1112basic_stringIcSt11char_traitsIcESaIcEEEPFvvEEE4sizeEv, symObjAddr: 0x11A4, symBinAddr: 0x100002BA0, symSize: 0x18 }
  - { offset: 0xB879, size: 0x8, addend: 0x0, symName: __ZNSt8_Rb_treeINSt7__cxx1112basic_stringIcSt11char_traitsIcESaIcEEESt4pairIKS5_PFvvEESt10_Select1stISA_ESt4lessIS5_ESaISA_EE8_M_beginEv, symObjAddr: 0x1188, symBinAddr: 0x100002B84, symSize: 0x1C }
  - { offset: 0xB8A1, size: 0x8, addend: 0x0, symName: __ZNSt8_Rb_treeINSt7__cxx1112basic_stringIcSt11char_traitsIcESaIcEEESt4pairIKS5_PFvvEESt10_Select1stISA_ESt4lessIS5_ESaISA_EE8_M_eraseEPSt13_Rb_tree_nodeISA_E, symObjAddr: 0x1124, symBinAddr: 0x100002B20, symSize: 0x64 }
  - { offset: 0xB930, size: 0x8, addend: 0x0, symName: __ZNSt8_Rb_treeINSt7__cxx1112basic_stringIcSt11char_traitsIcESaIcEEESt4pairIKS5_PFvvEESt10_Select1stISA_ESt4lessIS5_ESaISA_EE13_Rb_tree_implISE_Lb1EEC1ERKSE_OSaISt13_Rb_tree_nodeISA_EE, symObjAddr: 0x10BC, symBinAddr: 0x100002AB8, symSize: 0x68 }
  - { offset: 0xBA0D, size: 0x8, addend: 0x0, symName: __ZNSt6vectorINSt7__cxx1112basic_stringIcSt11char_traitsIcESaIcEEESaIS5_EE11_S_relocateEPS5_S8_S8_RS6_, symObjAddr: 0x1088, symBinAddr: 0x100002A84, symSize: 0x34 }
  - { offset: 0xBA6A, size: 0x8, addend: 0x0, symName: __ZSt12__to_addressINSt7__cxx1112basic_stringIcSt11char_traitsIcESaIcEEEEPT_S7_, symObjAddr: 0x1074, symBinAddr: 0x100002A70, symSize: 0x14 }
  - { offset: 0xBA9E, size: 0x8, addend: 0x0, symName: __ZNSt12_Vector_baseINSt7__cxx1112basic_stringIcSt11char_traitsIcESaIcEEESaIS5_EE11_M_allocateEm, symObjAddr: 0x1024, symBinAddr: 0x100002A20, symSize: 0x50 }
  - { offset: 0xBB05, size: 0x8, addend: 0x0, symName: __ZN9__gnu_cxxmiIPNSt7__cxx1112basic_stringIcSt11char_traitsIcESaIcEEESt6vectorIS6_SaIS6_EEEENS_17__normal_iteratorIT_T0_E15difference_typeERKSE_SH_, symObjAddr: 0xFE4, symBinAddr: 0x1000029E0, symSize: 0x40 }
  - { offset: 0xBB55, size: 0x8, addend: 0x0, symName: __ZNSt6vectorINSt7__cxx1112basic_stringIcSt11char_traitsIcESaIcEEESaIS5_EE5beginEv, symObjAddr: 0xFC0, symBinAddr: 0x1000029BC, symSize: 0x24 }
  - { offset: 0xBB7D, size: 0x8, addend: 0x0, symName: __ZNSt6vectorINSt7__cxx1112basic_stringIcSt11char_traitsIcESaIcEEESaIS5_EE3endEv, symObjAddr: 0xF98, symBinAddr: 0x100002994, symSize: 0x28 }
  - { offset: 0xBBA5, size: 0x8, addend: 0x0, symName: __ZNKSt6vectorINSt7__cxx1112basic_stringIcSt11char_traitsIcESaIcEEESaIS5_EE12_M_check_lenEmPKc, symObjAddr: 0xEC8, symBinAddr: 0x1000028C4, symSize: 0xD0 }
  - { offset: 0xBC41, size: 0x8, addend: 0x0, symName: __ZSt7forwardIRKNSt7__cxx1112basic_stringIcSt11char_traitsIcESaIcEEEEOT_RNSt16remove_referenceIS8_E4typeE, symObjAddr: 0xEB4, symBinAddr: 0x1000028B0, symSize: 0x14 }
  - { offset: 0xBC72, size: 0x8, addend: 0x0, symName: __ZSt8_DestroyIPNSt7__cxx1112basic_stringIcSt11char_traitsIcESaIcEEEEvT_S7_, symObjAddr: 0xE8C, symBinAddr: 0x100002888, symSize: 0x28 }
  - { offset: 0xBD1F, size: 0x8, addend: 0x0, symName: __ZNSt8_Rb_treeINSt7__cxx1112basic_stringIcSt11char_traitsIcESaIcEEESt4pairIKS5_PFvvEESt10_Select1stISA_ESt4lessIS5_ESaISA_EE22_M_insert_range_uniqueIPKSA_EENSt9enable_ifIXsrSt7is_sameISA_NSt15iterator_traitsIT_E10value_typeEE5valueEvE4typeESN_SN_, symObjAddr: 0xE0C, symBinAddr: 0x100002808, symSize: 0x80 }
  - { offset: 0xBD83, size: 0x8, addend: 0x0, symName: __ZNKSt16initializer_listISt4pairIKNSt7__cxx1112basic_stringIcSt11char_traitsIcESaIcEEEPFvvEEE3endEv, symObjAddr: 0xDC4, symBinAddr: 0x1000027C0, symSize: 0x48 }
  - { offset: 0xBDAB, size: 0x8, addend: 0x0, symName: __ZNKSt16initializer_listISt4pairIKNSt7__cxx1112basic_stringIcSt11char_traitsIcESaIcEEEPFvvEEE5beginEv, symObjAddr: 0xDAC, symBinAddr: 0x1000027A8, symSize: 0x18 }
  - { offset: 0xBDF4, size: 0x8, addend: 0x0, symName: __ZNSt8_Rb_treeINSt7__cxx1112basic_stringIcSt11char_traitsIcESaIcEEESt4pairIKS5_PFvvEESt10_Select1stISA_ESt4lessIS5_ESaISA_EED1Ev, symObjAddr: 0xD78, symBinAddr: 0x100002774, symSize: 0x34 }
  - { offset: 0xBE4A, size: 0x8, addend: 0x0, symName: __ZNSt8_Rb_treeINSt7__cxx1112basic_stringIcSt11char_traitsIcESaIcEEESt4pairIKS5_PFvvEESt10_Select1stISA_ESt4lessIS5_ESaISA_EEC1ERKSE_RKSF_, symObjAddr: 0xD00, symBinAddr: 0x1000026FC, symSize: 0x78 }
  - { offset: 0xBF30, size: 0x8, addend: 0x0, symName: __ZNSt8_Rb_treeINSt7__cxx1112basic_stringIcSt11char_traitsIcESaIcEEESt4pairIKS5_PFvvEESt10_Select1stISA_ESt4lessIS5_ESaISA_EE13_Rb_tree_implISE_Lb1EED1Ev, symObjAddr: 0xCD4, symBinAddr: 0x1000026D0, symSize: 0x2C }
  - { offset: 0xBFB8, size: 0x8, addend: 0x0, symName: __ZNSt15__new_allocatorISt4pairIKNSt7__cxx1112basic_stringIcSt11char_traitsIcESaIcEEEPFvvEEED2Ev, symObjAddr: 0xCC0, symBinAddr: 0x1000026BC, symSize: 0x14 }
  - { offset: 0xBFDC, size: 0x8, addend: 0x0, symName: __ZNSt6vectorINSt7__cxx1112basic_stringIcSt11char_traitsIcESaIcEEESaIS5_EE17_M_realloc_appendIJRKS5_EEEvDpOT_, symObjAddr: 0xAC4, symBinAddr: 0x1000024C0, symSize: 0x1FC }
  - { offset: 0xC156, size: 0x8, addend: 0x0, symName: __ZZNSt6vectorINSt7__cxx1112basic_stringIcSt11char_traitsIcESaIcEEESaIS5_EE17_M_realloc_appendIJRKS5_EEEvDpOT_EN6_GuardC1EPS5_mRS6_, symObjAddr: 0xA20, symBinAddr: 0x10000241C, symSize: 0x44 }
  - { offset: 0xC196, size: 0x8, addend: 0x0, symName: __ZZNSt6vectorINSt7__cxx1112basic_stringIcSt11char_traitsIcESaIcEEESaIS5_EE17_M_realloc_appendIJRKS5_EEEvDpOT_EN6_GuardD1Ev, symObjAddr: 0xA64, symBinAddr: 0x100002460, symSize: 0x60 }
  - { offset: 0xC2F2, size: 0x8, addend: 0x0, symName: __ZNSt12_Vector_baseINSt7__cxx1112basic_stringIcSt11char_traitsIcESaIcEEESaIS5_EE19_M_get_Tp_allocatorEv, symObjAddr: 0xA0C, symBinAddr: 0x100002408, symSize: 0x14 }
  - { offset: 0xC31A, size: 0x8, addend: 0x0, symName: __ZNSt12_Vector_baseINSt7__cxx1112basic_stringIcSt11char_traitsIcESaIcEEESaIS5_EE13_M_deallocateEPS5_m, symObjAddr: 0x9B4, symBinAddr: 0x1000023B0, symSize: 0x58 }
  - { offset: 0xC3B8, size: 0x8, addend: 0x0, symName: __ZNSt15__new_allocatorINSt7__cxx1112basic_stringIcSt11char_traitsIcESaIcEEEED2Ev, symObjAddr: 0x9A0, symBinAddr: 0x10000239C, symSize: 0x14 }
  - { offset: 0xC3F4, size: 0x8, addend: 0x0, symName: __ZNSt12_Vector_baseINSt7__cxx1112basic_stringIcSt11char_traitsIcESaIcEEESaIS5_EE17_Vector_impl_dataC2Ev, symObjAddr: 0x974, symBinAddr: 0x100002370, symSize: 0x2C }
  - { offset: 0xC42F, size: 0x8, addend: 0x0, symName: __ZSt4moveIRNSt7__cxx1112basic_stringIcSt11char_traitsIcESaIcEEEEONSt16remove_referenceIT_E4typeEOS8_, symObjAddr: 0x960, symBinAddr: 0x10000235C, symSize: 0x14 }
  - { offset: 0xC463, size: 0x8, addend: 0x0, symName: __ZNSt7__cxx1112basic_stringIcSt11char_traitsIcESaIcEE12_M_constructIPKcEEvT_S8_St20forward_iterator_tag, symObjAddr: 0x860, symBinAddr: 0x10000225C, symSize: 0x100 }
  - { offset: 0xC562, size: 0x8, addend: 0x0, symName: __ZZNSt7__cxx1112basic_stringIcSt11char_traitsIcESaIcEE12_M_constructIPKcEEvT_S8_St20forward_iterator_tagEN6_GuardC1EPS4_, symObjAddr: 0x808, symBinAddr: 0x100002204, symSize: 0x24 }
  - { offset: 0xC592, size: 0x8, addend: 0x0, symName: __ZZNSt7__cxx1112basic_stringIcSt11char_traitsIcESaIcEE12_M_constructIPKcEEvT_S8_St20forward_iterator_tagEN6_GuardD1Ev, symObjAddr: 0x82C, symBinAddr: 0x100002228, symSize: 0x34 }
  - { offset: 0xC683, size: 0x8, addend: 0x0, symName: __ZNSt15__new_allocatorIcED2Ev, symObjAddr: 0x7F4, symBinAddr: 0x1000021F0, symSize: 0x14 }
  - { offset: 0xC6E1, size: 0x8, addend: 0x0, symName: __ZN9__gnu_cxx11char_traitsIcE2eqERKcS3_, symObjAddr: 0x7C4, symBinAddr: 0x1000021C0, symSize: 0x30 }
  - { offset: 0xC757, size: 0x8, addend: 0x0, symName: __ZNSt3mapINSt7__cxx1112basic_stringIcSt11char_traitsIcESaIcEEEPFvvESt4lessIS5_ESaISt4pairIKS5_S7_EEEC1ESt16initializer_listISC_ERKS9_RKSD_, symObjAddr: 0x704, symBinAddr: 0x100002100, symSize: 0xC0 }
  - { offset: 0xC881, size: 0x8, addend: 0x0, symName: __ZNSt7__cxx1112basic_stringIcSt11char_traitsIcESaIcEEC1IS3_EEPKcRKS3_, symObjAddr: 0x668, symBinAddr: 0x100002064, symSize: 0x9C }
  - { offset: 0xC8EF, size: 0x8, addend: 0x0, symName: __ZSt7forwardIPFvvEEOT_RNSt16remove_referenceIS2_E4typeE, symObjAddr: 0x654, symBinAddr: 0x100002050, symSize: 0x14 }
  - { offset: 0xC92C, size: 0x8, addend: 0x0, symName: __ZSt7forwardIRA6_KcEOT_RNSt16remove_referenceIS3_E4typeE, symObjAddr: 0x640, symBinAddr: 0x10000203C, symSize: 0x14 }
  - { offset: 0xC960, size: 0x8, addend: 0x0, symName: __ZNSt6vectorINSt7__cxx1112basic_stringIcSt11char_traitsIcESaIcEEESaIS5_EE9push_backERKS5_, symObjAddr: 0x544, symBinAddr: 0x100001F40, symSize: 0xFC }
  - { offset: 0xC9F7, size: 0x8, addend: 0x0, symName: __ZNSt6vectorINSt7__cxx1112basic_stringIcSt11char_traitsIcESaIcEEESaIS5_EEixEm, symObjAddr: 0x51C, symBinAddr: 0x100001F18, symSize: 0x28 }
  - { offset: 0xCA30, size: 0x8, addend: 0x0, symName: __ZNKSt6vectorINSt7__cxx1112basic_stringIcSt11char_traitsIcESaIcEEESaIS5_EE4sizeEv, symObjAddr: 0x4F4, symBinAddr: 0x100001EF0, symSize: 0x28 }
  - { offset: 0xCA79, size: 0x8, addend: 0x0, symName: __ZNSt6vectorINSt7__cxx1112basic_stringIcSt11char_traitsIcESaIcEEESaIS5_EED1Ev, symObjAddr: 0x498, symBinAddr: 0x100001E94, symSize: 0x5C }
  - { offset: 0xCAF1, size: 0x8, addend: 0x0, symName: __ZNSt12_Vector_baseINSt7__cxx1112basic_stringIcSt11char_traitsIcESaIcEEESaIS5_EED2Ev, symObjAddr: 0x448, symBinAddr: 0x100001E44, symSize: 0x50 }
  - { offset: 0xCB4A, size: 0x8, addend: 0x0, symName: __ZNSt12_Vector_baseINSt7__cxx1112basic_stringIcSt11char_traitsIcESaIcEEESaIS5_EE12_Vector_implC1Ev, symObjAddr: 0x410, symBinAddr: 0x100001E0C, symSize: 0x38 }
  - { offset: 0xCC06, size: 0x8, addend: 0x0, symName: __ZNSt7__cxx1112basic_stringIcSt11char_traitsIcESaIcEE12_Alloc_hiderD1Ev, symObjAddr: 0x3E4, symBinAddr: 0x100001DE0, symSize: 0x2C }
  - { offset: 0xCC48, size: 0x8, addend: 0x0, symName: __ZN9__gnu_cxx11char_traitsIcE6lengthEPKc, symObjAddr: 0x38C, symBinAddr: 0x100001D88, symSize: 0x58 }
  - { offset: 0xCCC7, size: 0x8, addend: 0x0, symName: __ZNSt4pairIKNSt7__cxx1112basic_stringIcSt11char_traitsIcESaIcEEEPFvvEEC1IRA6_KcS8_Lb1EEEOT_OT0_, symObjAddr: 0x2FC, symBinAddr: 0x100001CF8, symSize: 0x90 }
  - { offset: 0xCDB7, size: 0x8, addend: 0x0, symName: __ZNSt4pairIKNSt7__cxx1112basic_stringIcSt11char_traitsIcESaIcEEEPFvvEED1Ev, symObjAddr: 0x2DC, symBinAddr: 0x100001CD8, symSize: 0x20 }
  - { offset: 0xCDDF, size: 0x8, addend: 0x0, symName: __Z5hellov, symObjAddr: 0x2B4, symBinAddr: 0x100001CB0, symSize: 0x28 }
  - { offset: 0xCE02, size: 0x8, addend: 0x0, symName: __Z14getSystemFilesRSt6vectorINSt7__cxx1112basic_stringIcSt11char_traitsIcESaIcEEESaIS5_EE, symObjAddr: 0x13C, symBinAddr: 0x100001B38, symSize: 0x178 }
  - { offset: 0xCE83, size: 0x8, addend: 0x0, symName: __ZNSt6vectorINSt7__cxx1112basic_stringIcSt11char_traitsIcESaIcEEESaIS5_EEC1Ev, symObjAddr: 0x11C, symBinAddr: 0x100001B18, symSize: 0x20 }
  - { offset: 0xCEBF, size: 0x8, addend: 0x0, symName: __ZNSt12_Vector_baseINSt7__cxx1112basic_stringIcSt11char_traitsIcESaIcEEESaIS5_EEC2Ev, symObjAddr: 0xFC, symBinAddr: 0x100001AF8, symSize: 0x20 }
  - { offset: 0xCF08, size: 0x8, addend: 0x0, symName: __ZNSt12_Vector_baseINSt7__cxx1112basic_stringIcSt11char_traitsIcESaIcEEESaIS5_EE12_Vector_implD1Ev, symObjAddr: 0xD0, symBinAddr: 0x100001ACC, symSize: 0x2C }
  - { offset: 0xCF4D, size: 0x8, addend: 0x0, symName: __ZNSt15_Rb_tree_header8_M_resetEv, symObjAddr: 0x94, symBinAddr: 0x100001A90, symSize: 0x3C }
  - { offset: 0xCF8D, size: 0x8, addend: 0x0, symName: __ZNSt15_Rb_tree_headerC2Ev, symObjAddr: 0x6C, symBinAddr: 0x100001A68, symSize: 0x28 }
  - { offset: 0xCFAE, size: 0x8, addend: 0x0, symName: __ZNSt11char_traitsIcE6lengthEPKc, symObjAddr: 0x30, symBinAddr: 0x100001A2C, symSize: 0x3C }
  - { offset: 0xCFF9, size: 0x8, addend: 0x0, symName: __ZdlPvS_, symObjAddr: 0x18, symBinAddr: 0x100001A14, symSize: 0x18 }
  - { offset: 0xD02D, size: 0x8, addend: 0x0, symName: __ZnwmPv, symObjAddr: 0x0, symBinAddr: 0x1000019FC, symSize: 0x18 }
  - { offset: 0x16D70, size: 0x8, addend: 0x0, symName: __ZStL8__ioinit, symObjAddr: 0x5C4A6, symBinAddr: 0x100028001, symSize: 0x0 }
  - { offset: 0x17257, size: 0x8, addend: 0x0, symName: __Z8KeywordsB5cxx11, symObjAddr: 0x5C4A8, symBinAddr: 0x100028088, symSize: 0x0 }
  - { offset: 0x1740C, size: 0x8, addend: 0x0, symName: __Z9rKeywordsB5cxx11, symObjAddr: 0x5C4D8, symBinAddr: 0x1000280B8, symSize: 0x0 }
  - { offset: 0x17787, size: 0x8, addend: 0x0, symName: __ZNSt3mapI9TokenTypeNSt7__cxx1112basic_stringIcSt11char_traitsIcESaIcEEESt4lessIS0_ESaISt4pairIKS0_S6_EEED1Ev, symObjAddr: 0x477C, symBinAddr: 0x1000082EC, symSize: 0x20 }
  - { offset: 0x177CC, size: 0x8, addend: 0x0, symName: __ZNSt3mapINSt7__cxx1112basic_stringIcSt11char_traitsIcESaIcEEE9TokenTypeSt4lessIS5_ESaISt4pairIKS5_S6_EEED1Ev, symObjAddr: 0x475C, symBinAddr: 0x1000082CC, symSize: 0x20 }
  - { offset: 0x177ED, size: 0x8, addend: 0x0, symName: __ZNSt10_Head_baseILm0ERKNSt7__cxx1112basic_stringIcSt11char_traitsIcESaIcEEELb0EE7_M_headERS8_, symObjAddr: 0x4744, symBinAddr: 0x1000082B4, symSize: 0x18 }
  - { offset: 0x17815, size: 0x8, addend: 0x0, symName: __ZNSt10_Head_baseILm0ERK9TokenTypeLb0EE7_M_headERS3_, symObjAddr: 0x472C, symBinAddr: 0x10000829C, symSize: 0x18 }
  - { offset: 0x1783D, size: 0x8, addend: 0x0, symName: __ZNSt11_Tuple_implILm0EJRKNSt7__cxx1112basic_stringIcSt11char_traitsIcESaIcEEEEE7_M_headERS8_, symObjAddr: 0x4710, symBinAddr: 0x100008280, symSize: 0x1C }
  - { offset: 0x17867, size: 0x8, addend: 0x0, symName: __ZNSt11_Tuple_implILm0EJRK9TokenTypeEE7_M_headERS3_, symObjAddr: 0x46F4, symBinAddr: 0x100008264, symSize: 0x1C }
  - { offset: 0x17891, size: 0x8, addend: 0x0, symName: __ZSt12__get_helperILm0ERKNSt7__cxx1112basic_stringIcSt11char_traitsIcESaIcEEEJEERT0_RSt11_Tuple_implIXT_EJS8_DpT1_EE, symObjAddr: 0x46D8, symBinAddr: 0x100008248, symSize: 0x1C }
  - { offset: 0x178D4, size: 0x8, addend: 0x0, symName: __ZSt12__get_helperILm0ERK9TokenTypeJEERT0_RSt11_Tuple_implIXT_EJS3_DpT1_EE, symObjAddr: 0x46BC, symBinAddr: 0x10000822C, symSize: 0x1C }
  - { offset: 0x17917, size: 0x8, addend: 0x0, symName: __ZSt3getILm0EJRKNSt7__cxx1112basic_stringIcSt11char_traitsIcESaIcEEEEERNSt13tuple_elementIXT_ESt5tupleIJDpT0_EEE4typeERSC_, symObjAddr: 0x468C, symBinAddr: 0x100008210, symSize: 0x1C }
  - { offset: 0x1795C, size: 0x8, addend: 0x0, symName: __ZSt7forwardIRK9TokenTypeEOT_RNSt16remove_referenceIS3_E4typeE, symObjAddr: 0x4678, symBinAddr: 0x1000081FC, symSize: 0x14 }
  - { offset: 0x1798D, size: 0x8, addend: 0x0, symName: __ZSt3getILm0EJRK9TokenTypeEERNSt13tuple_elementIXT_ESt5tupleIJDpT0_EEE4typeERS7_, symObjAddr: 0x465C, symBinAddr: 0x1000081E0, symSize: 0x1C }
  - { offset: 0x17A38, size: 0x8, addend: 0x0, symName: __ZNSt4pairIKNSt7__cxx1112basic_stringIcSt11char_traitsIcESaIcEEE9TokenTypeEC1IJRS6_EJLm0EEJEJEEERSt5tupleIJDpT_EERSB_IJDpT1_EESt12_Index_tupleIJXspT0_EEESK_IJXspT2_EEE, symObjAddr: 0x4608, symBinAddr: 0x10000818C, symSize: 0x54 }
  - { offset: 0x17B12, size: 0x8, addend: 0x0, symName: __ZNSt4pairIK9TokenTypeNSt7__cxx1112basic_stringIcSt11char_traitsIcESaIcEEEEC1IJRS1_EJLm0EEJEJEEERSt5tupleIJDpT_EERSB_IJDpT1_EESt12_Index_tupleIJXspT0_EEESK_IJXspT2_EEE, symObjAddr: 0x45BC, symBinAddr: 0x100008140, symSize: 0x4C }
  - { offset: 0x17BDE, size: 0x8, addend: 0x0, symName: __ZNSt4pairIKNSt7__cxx1112basic_stringIcSt11char_traitsIcESaIcEEE9TokenTypeEC1ERKS8_, symObjAddr: 0x4584, symBinAddr: 0x100008108, symSize: 0x38 }
  - { offset: 0x17C52, size: 0x8, addend: 0x0, symName: __ZNSt4pairIKNSt7__cxx1112basic_stringIcSt11char_traitsIcESaIcEEE9TokenTypeEC1IJRS6_EJEEESt21piecewise_construct_tSt5tupleIJDpT_EESC_IJDpT0_EE, symObjAddr: 0x4548, symBinAddr: 0x1000080CC, symSize: 0x3C }
  - { offset: 0x17CC5, size: 0x8, addend: 0x0, symName: __ZNSt11_Tuple_implILm0EJRKNSt7__cxx1112basic_stringIcSt11char_traitsIcESaIcEEEEEC2EOS8_, symObjAddr: 0x4520, symBinAddr: 0x1000080A4, symSize: 0x28 }
  - { offset: 0x17D39, size: 0x8, addend: 0x0, symName: __ZNSt4pairIK9TokenTypeNSt7__cxx1112basic_stringIcSt11char_traitsIcESaIcEEEEC1IJRS1_EJEEESt21piecewise_construct_tSt5tupleIJDpT_EESC_IJDpT0_EE, symObjAddr: 0x44E4, symBinAddr: 0x100008068, symSize: 0x3C }
  - { offset: 0x17DAC, size: 0x8, addend: 0x0, symName: __ZNSt11_Tuple_implILm0EJRK9TokenTypeEEC2EOS3_, symObjAddr: 0x44BC, symBinAddr: 0x100008040, symSize: 0x28 }
  - { offset: 0x17E93, size: 0x8, addend: 0x0, symName: __ZNSt5tupleIJRKNSt7__cxx1112basic_stringIcSt11char_traitsIcESaIcEEEEEC1EOS8_, symObjAddr: 0x4494, symBinAddr: 0x100008018, symSize: 0x28 }
  - { offset: 0x17EBF, size: 0x8, addend: 0x0, symName: __ZNSt15__new_allocatorISt13_Rb_tree_nodeISt4pairIKNSt7__cxx1112basic_stringIcSt11char_traitsIcESaIcEEE9TokenTypeEEE8allocateEmPKv, symObjAddr: 0x43FC, symBinAddr: 0x100007F80, symSize: 0x98 }
  - { offset: 0x17F45, size: 0x8, addend: 0x0, symName: __ZNK9__gnu_cxx16__aligned_membufISt4pairIKNSt7__cxx1112basic_stringIcSt11char_traitsIcESaIcEEE9TokenTypeEE7_M_addrEv, symObjAddr: 0x43E8, symBinAddr: 0x100007F6C, symSize: 0x14 }
  - { offset: 0x17F71, size: 0x8, addend: 0x0, symName: __ZNK9__gnu_cxx16__aligned_membufISt4pairIK9TokenTypeNSt7__cxx1112basic_stringIcSt11char_traitsIcESaIcEEEEE7_M_addrEv, symObjAddr: 0x43D4, symBinAddr: 0x100007F58, symSize: 0x14 }
  - { offset: 0x18008, size: 0x8, addend: 0x0, symName: __ZNSt5tupleIJRK9TokenTypeEEC1EOS3_, symObjAddr: 0x43AC, symBinAddr: 0x100007F30, symSize: 0x28 }
  - { offset: 0x18034, size: 0x8, addend: 0x0, symName: __ZNSt15__new_allocatorISt13_Rb_tree_nodeISt4pairIK9TokenTypeNSt7__cxx1112basic_stringIcSt11char_traitsIcESaIcEEEEEE8allocateEmPKv, symObjAddr: 0x4314, symBinAddr: 0x100007E98, symSize: 0x98 }
  - { offset: 0x180B6, size: 0x8, addend: 0x0, symName: __ZNSt8_Rb_treeINSt7__cxx1112basic_stringIcSt11char_traitsIcESaIcEEESt4pairIKS5_9TokenTypeESt10_Select1stIS9_ESt4lessIS5_ESaIS9_EE17_M_construct_nodeIJRKS9_EEEvPSt13_Rb_tree_nodeIS9_EDpOT_, symObjAddr: 0x4210, symBinAddr: 0x100007D94, symSize: 0x104 }
  - { offset: 0x18167, size: 0x8, addend: 0x0, symName: __ZNSt15__new_allocatorISt13_Rb_tree_nodeISt4pairIKNSt7__cxx1112basic_stringIcSt11char_traitsIcESaIcEEE9TokenTypeEEE10deallocateEPSB_m, symObjAddr: 0x41D4, symBinAddr: 0x100007D58, symSize: 0x3C }
  - { offset: 0x181DF, size: 0x8, addend: 0x0, symName: __ZSt7forwardIRPSt13_Rb_tree_nodeISt4pairIKNSt7__cxx1112basic_stringIcSt11char_traitsIcESaIcEEE9TokenTypeEEEOT_RNSt16remove_referenceISE_E4typeE, symObjAddr: 0x41C0, symBinAddr: 0x100007D44, symSize: 0x14 }
  - { offset: 0x18288, size: 0x8, addend: 0x0, symName: __ZNK9__gnu_cxx16__aligned_membufISt4pairIKNSt7__cxx1112basic_stringIcSt11char_traitsIcESaIcEEE9TokenTypeEE6_M_ptrEv, symObjAddr: 0x41A4, symBinAddr: 0x100007D28, symSize: 0x1C }
  - { offset: 0x182B0, size: 0x8, addend: 0x0, symName: __ZNK9__gnu_cxx16__aligned_membufISt4pairIK9TokenTypeNSt7__cxx1112basic_stringIcSt11char_traitsIcESaIcEEEEE6_M_ptrEv, symObjAddr: 0x4188, symBinAddr: 0x100007D0C, symSize: 0x1C }
  - { offset: 0x182E1, size: 0x8, addend: 0x0, symName: __ZSt7forwardIRPSt13_Rb_tree_nodeISt4pairIK9TokenTypeNSt7__cxx1112basic_stringIcSt11char_traitsIcESaIcEEEEEEOT_RNSt16remove_referenceISE_E4typeE, symObjAddr: 0x4174, symBinAddr: 0x100007CF8, symSize: 0x14 }
  - { offset: 0x1838A, size: 0x8, addend: 0x0, symName: __ZNSt15__new_allocatorISt13_Rb_tree_nodeISt4pairIK9TokenTypeNSt7__cxx1112basic_stringIcSt11char_traitsIcESaIcEEEEEE10deallocateEPSB_m, symObjAddr: 0x4138, symBinAddr: 0x100007CBC, symSize: 0x3C }
  - { offset: 0x1841F, size: 0x8, addend: 0x0, symName: __ZNSt4pairIK9TokenTypeNSt7__cxx1112basic_stringIcSt11char_traitsIcESaIcEEEED1Ev, symObjAddr: 0x4114, symBinAddr: 0x100007C98, symSize: 0x24 }
  - { offset: 0x18443, size: 0x8, addend: 0x0, symName: __ZNSt8_Rb_treeINSt7__cxx1112basic_stringIcSt11char_traitsIcESaIcEEESt4pairIKS5_9TokenTypeESt10_Select1stIS9_ESt4lessIS5_ESaIS9_EE14_M_create_nodeIJRKS9_EEEPSt13_Rb_tree_nodeIS9_EDpOT_, symObjAddr: 0x40D4, symBinAddr: 0x100007C58, symSize: 0x40 }
  - { offset: 0x184ED, size: 0x8, addend: 0x0, symName: __ZNSt8_Rb_treeINSt7__cxx1112basic_stringIcSt11char_traitsIcESaIcEEESt4pairIKS5_9TokenTypeESt10_Select1stIS9_ESt4lessIS5_ESaIS9_EE21_M_get_Node_allocatorEv, symObjAddr: 0x40C0, symBinAddr: 0x100007C44, symSize: 0x14 }
  - { offset: 0x18559, size: 0x8, addend: 0x0, symName: __ZNSt4pairIPSt18_Rb_tree_node_baseS1_EC1IRPSt13_Rb_tree_nodeIS_IKNSt7__cxx1112basic_stringIcSt11char_traitsIcESaIcEEE9TokenTypeEERS1_Lb1EEEOT_OT0_, symObjAddr: 0x4078, symBinAddr: 0x100007BFC, symSize: 0x48 }
  - { offset: 0x1859F, size: 0x8, addend: 0x0, symName: __ZNSt8_Rb_treeINSt7__cxx1112basic_stringIcSt11char_traitsIcESaIcEEESt4pairIKS5_9TokenTypeESt10_Select1stIS9_ESt4lessIS5_ESaIS9_EE17_M_construct_nodeIJRKSt21piecewise_construct_tSt5tupleIJRS7_EESK_IJEEEEEvPSt13_Rb_tree_nodeIS9_EDpOT_, symObjAddr: 0x3EFC, symBinAddr: 0x100007A80, symSize: 0x17C }
  - { offset: 0x18690, size: 0x8, addend: 0x0, symName: __ZNSt8_Rb_treeINSt7__cxx1112basic_stringIcSt11char_traitsIcESaIcEEESt4pairIKS5_9TokenTypeESt10_Select1stIS9_ESt4lessIS5_ESaIS9_EE11_M_get_nodeEv, symObjAddr: 0x3EC0, symBinAddr: 0x100007A44, symSize: 0x3C }
  - { offset: 0x186E3, size: 0x8, addend: 0x0, symName: __ZNKSt13_Rb_tree_nodeISt4pairIKNSt7__cxx1112basic_stringIcSt11char_traitsIcESaIcEEE9TokenTypeEE9_M_valptrEv, symObjAddr: 0x3EA0, symBinAddr: 0x100007A24, symSize: 0x20 }
  - { offset: 0x1870B, size: 0x8, addend: 0x0, symName: __ZNKSt10_Select1stISt4pairIK9TokenTypeNSt7__cxx1112basic_stringIcSt11char_traitsIcESaIcEEEEEclERKS9_, symObjAddr: 0x3E88, symBinAddr: 0x100007A0C, symSize: 0x18 }
  - { offset: 0x18744, size: 0x8, addend: 0x0, symName: __ZNKSt13_Rb_tree_nodeISt4pairIK9TokenTypeNSt7__cxx1112basic_stringIcSt11char_traitsIcESaIcEEEEE9_M_valptrEv, symObjAddr: 0x3E68, symBinAddr: 0x1000079EC, symSize: 0x20 }
  - { offset: 0x187B0, size: 0x8, addend: 0x0, symName: __ZNSt4pairIPSt18_Rb_tree_node_baseS1_EC1IRPSt13_Rb_tree_nodeIS_IK9TokenTypeNSt7__cxx1112basic_stringIcSt11char_traitsIcESaIcEEEEERS1_Lb1EEEOT_OT0_, symObjAddr: 0x3E0C, symBinAddr: 0x1000079A4, symSize: 0x48 }
  - { offset: 0x187F6, size: 0x8, addend: 0x0, symName: __ZNSt8_Rb_treeI9TokenTypeSt4pairIKS0_NSt7__cxx1112basic_stringIcSt11char_traitsIcESaIcEEEESt10_Select1stIS9_ESt4lessIS0_ESaIS9_EE5beginEv, symObjAddr: 0x3DE4, symBinAddr: 0x10000797C, symSize: 0x28 }
  - { offset: 0x1881E, size: 0x8, addend: 0x0, symName: __ZNSt8_Rb_treeI9TokenTypeSt4pairIKS0_NSt7__cxx1112basic_stringIcSt11char_traitsIcESaIcEEEESt10_Select1stIS9_ESt4lessIS0_ESaIS9_EE17_M_construct_nodeIJRKSt21piecewise_construct_tSt5tupleIJRS2_EESK_IJEEEEEvPSt13_Rb_tree_nodeIS9_EDpOT_, symObjAddr: 0x3C68, symBinAddr: 0x100007800, symSize: 0x17C }
  - { offset: 0x1890F, size: 0x8, addend: 0x0, symName: __ZNSt8_Rb_treeI9TokenTypeSt4pairIKS0_NSt7__cxx1112basic_stringIcSt11char_traitsIcESaIcEEEESt10_Select1stIS9_ESt4lessIS0_ESaIS9_EE11_M_get_nodeEv, symObjAddr: 0x3C2C, symBinAddr: 0x1000077C4, symSize: 0x3C }
  - { offset: 0x18966, size: 0x8, addend: 0x0, symName: __ZN9__gnu_cxx16__aligned_membufISt4pairIK9TokenTypeNSt7__cxx1112basic_stringIcSt11char_traitsIcESaIcEEEEE7_M_addrEv, symObjAddr: 0x3C18, symBinAddr: 0x1000077B0, symSize: 0x14 }
  - { offset: 0x189E6, size: 0x8, addend: 0x0, symName: __ZNSt8_Rb_treeI9TokenTypeSt4pairIKS0_NSt7__cxx1112basic_stringIcSt11char_traitsIcESaIcEEEESt10_Select1stIS9_ESt4lessIS0_ESaIS9_EE21_M_get_Node_allocatorEv, symObjAddr: 0x3C04, symBinAddr: 0x10000779C, symSize: 0x14 }
  - { offset: 0x18A19, size: 0x8, addend: 0x0, symName: __ZNKSt8_Rb_treeINSt7__cxx1112basic_stringIcSt11char_traitsIcESaIcEEESt4pairIKS5_9TokenTypeESt10_Select1stIS9_ESt4lessIS5_ESaIS9_EE11_Alloc_nodeclIRKS9_EEPSt13_Rb_tree_nodeIS9_EOT_, symObjAddr: 0x3BC8, symBinAddr: 0x100007760, symSize: 0x3C }
  - { offset: 0x18A5B, size: 0x8, addend: 0x0, symName: __ZNSt8_Rb_treeINSt7__cxx1112basic_stringIcSt11char_traitsIcESaIcEEESt4pairIKS5_9TokenTypeESt10_Select1stIS9_ESt4lessIS5_ESaIS9_EE11_M_put_nodeEPSt13_Rb_tree_nodeIS9_E, symObjAddr: 0x3B7C, symBinAddr: 0x100007714, symSize: 0x4C }
  - { offset: 0x18AC7, size: 0x8, addend: 0x0, symName: __ZNSt8_Rb_treeINSt7__cxx1112basic_stringIcSt11char_traitsIcESaIcEEESt4pairIKS5_9TokenTypeESt10_Select1stIS9_ESt4lessIS5_ESaIS9_EE15_M_destroy_nodeEPSt13_Rb_tree_nodeIS9_E, symObjAddr: 0x3B1C, symBinAddr: 0x1000076B4, symSize: 0x60 }
  - { offset: 0x18B6F, size: 0x8, addend: 0x0, symName: __ZNSt8_Rb_treeINSt7__cxx1112basic_stringIcSt11char_traitsIcESaIcEEESt4pairIKS5_9TokenTypeESt10_Select1stIS9_ESt4lessIS5_ESaIS9_EE14_M_insert_nodeEPSt18_Rb_tree_node_baseSH_PSt13_Rb_tree_nodeIS9_E, symObjAddr: 0x3A4C, symBinAddr: 0x1000075E4, symSize: 0xD0 }
  - { offset: 0x18BDB, size: 0x8, addend: 0x0, symName: __ZNSt17_Rb_tree_iteratorISt4pairIKNSt7__cxx1112basic_stringIcSt11char_traitsIcESaIcEEE9TokenTypeEEmmEv, symObjAddr: 0x3A1C, symBinAddr: 0x1000075B4, symSize: 0x30 }
  - { offset: 0x18C03, size: 0x8, addend: 0x0, symName: __ZNSt8_Rb_treeINSt7__cxx1112basic_stringIcSt11char_traitsIcESaIcEEESt4pairIKS5_9TokenTypeESt10_Select1stIS9_ESt4lessIS5_ESaIS9_EE11_M_leftmostEv, symObjAddr: 0x3A04, symBinAddr: 0x10000759C, symSize: 0x18 }
  - { offset: 0x18C2B, size: 0x8, addend: 0x0, symName: __ZNSt8_Rb_treeINSt7__cxx1112basic_stringIcSt11char_traitsIcESaIcEEESt4pairIKS5_9TokenTypeESt10_Select1stIS9_ESt4lessIS5_ESaIS9_EE24_M_get_insert_unique_posERS7_, symObjAddr: 0x38AC, symBinAddr: 0x100007444, symSize: 0x158 }
  - { offset: 0x18CAD, size: 0x8, addend: 0x0, symName: __ZNSt8_Rb_treeINSt7__cxx1112basic_stringIcSt11char_traitsIcESaIcEEESt4pairIKS5_9TokenTypeESt10_Select1stIS9_ESt4lessIS5_ESaIS9_EE12_M_rightmostEv, symObjAddr: 0x3894, symBinAddr: 0x10000742C, symSize: 0x18 }
  - { offset: 0x18CD5, size: 0x8, addend: 0x0, symName: __ZNKSt8_Rb_treeINSt7__cxx1112basic_stringIcSt11char_traitsIcESaIcEEESt4pairIKS5_9TokenTypeESt10_Select1stIS9_ESt4lessIS5_ESaIS9_EE4sizeEv, symObjAddr: 0x387C, symBinAddr: 0x100007414, symSize: 0x18 }
  - { offset: 0x18CFD, size: 0x8, addend: 0x0, symName: __ZNKSt23_Rb_tree_const_iteratorISt4pairIKNSt7__cxx1112basic_stringIcSt11char_traitsIcESaIcEEE9TokenTypeEE13_M_const_castEv, symObjAddr: 0x3854, symBinAddr: 0x1000073EC, symSize: 0x28 }
  - { offset: 0x18D25, size: 0x8, addend: 0x0, symName: __ZNSt8_Rb_treeINSt7__cxx1112basic_stringIcSt11char_traitsIcESaIcEEESt4pairIKS5_9TokenTypeESt10_Select1stIS9_ESt4lessIS5_ESaIS9_EE14_M_create_nodeIJRKSt21piecewise_construct_tSt5tupleIJRS7_EESK_IJEEEEEPSt13_Rb_tree_nodeIS9_EDpOT_, symObjAddr: 0x37E4, symBinAddr: 0x10000737C, symSize: 0x70 }
  - { offset: 0x18DB5, size: 0x8, addend: 0x0, symName: __ZNSt10_Head_baseILm0ERKNSt7__cxx1112basic_stringIcSt11char_traitsIcESaIcEEELb0EEC2ES7_, symObjAddr: 0x37C0, symBinAddr: 0x100007358, symSize: 0x24 }
  - { offset: 0x18DDE, size: 0x8, addend: 0x0, symName: __ZNSt8_Rb_treeINSt7__cxx1112basic_stringIcSt11char_traitsIcESaIcEEESt4pairIKS5_9TokenTypeESt10_Select1stIS9_ESt4lessIS5_ESaIS9_EE6_S_keyEPKSt13_Rb_tree_nodeIS9_E, symObjAddr: 0x3798, symBinAddr: 0x100007330, symSize: 0x28 }
  - { offset: 0x18E0B, size: 0x8, addend: 0x0, symName: __ZNSt8_Rb_treeI9TokenTypeSt4pairIKS0_NSt7__cxx1112basic_stringIcSt11char_traitsIcESaIcEEEESt10_Select1stIS9_ESt4lessIS0_ESaIS9_EE14_M_insert_nodeEPSt18_Rb_tree_node_baseSH_PSt13_Rb_tree_nodeIS9_E, symObjAddr: 0x36C8, symBinAddr: 0x100007260, symSize: 0xD0 }
  - { offset: 0x18E74, size: 0x8, addend: 0x0, symName: __ZNSt8_Rb_treeI9TokenTypeSt4pairIKS0_NSt7__cxx1112basic_stringIcSt11char_traitsIcESaIcEEEESt10_Select1stIS9_ESt4lessIS0_ESaIS9_EE6_S_keyEPKSt13_Rb_tree_nodeIS9_E, symObjAddr: 0x36A0, symBinAddr: 0x100007238, symSize: 0x28 }
  - { offset: 0x18EA1, size: 0x8, addend: 0x0, symName: __ZNSt17_Rb_tree_iteratorISt4pairIK9TokenTypeNSt7__cxx1112basic_stringIcSt11char_traitsIcESaIcEEEEEppEv, symObjAddr: 0x3670, symBinAddr: 0x100007208, symSize: 0x30 }
  - { offset: 0x18EC9, size: 0x8, addend: 0x0, symName: __ZNSt17_Rb_tree_iteratorISt4pairIK9TokenTypeNSt7__cxx1112basic_stringIcSt11char_traitsIcESaIcEEEEEmmEv, symObjAddr: 0x3640, symBinAddr: 0x1000071D8, symSize: 0x30 }
  - { offset: 0x18EF1, size: 0x8, addend: 0x0, symName: __ZNSt8_Rb_treeI9TokenTypeSt4pairIKS0_NSt7__cxx1112basic_stringIcSt11char_traitsIcESaIcEEEESt10_Select1stIS9_ESt4lessIS0_ESaIS9_EE11_M_leftmostEv, symObjAddr: 0x35E0, symBinAddr: 0x1000071C0, symSize: 0x18 }
  - { offset: 0x18F19, size: 0x8, addend: 0x0, symName: __ZNSt8_Rb_treeI9TokenTypeSt4pairIKS0_NSt7__cxx1112basic_stringIcSt11char_traitsIcESaIcEEEESt10_Select1stIS9_ESt4lessIS0_ESaIS9_EE24_M_get_insert_unique_posERS2_, symObjAddr: 0x3488, symBinAddr: 0x100007068, symSize: 0x158 }
  - { offset: 0x18F98, size: 0x8, addend: 0x0, symName: __ZNSt8_Rb_treeI9TokenTypeSt4pairIKS0_NSt7__cxx1112basic_stringIcSt11char_traitsIcESaIcEEEESt10_Select1stIS9_ESt4lessIS0_ESaIS9_EE6_S_keyEPKSt18_Rb_tree_node_base, symObjAddr: 0x3430, symBinAddr: 0x10000704C, symSize: 0x1C }
  - { offset: 0x18FC5, size: 0x8, addend: 0x0, symName: __ZNSt8_Rb_treeI9TokenTypeSt4pairIKS0_NSt7__cxx1112basic_stringIcSt11char_traitsIcESaIcEEEESt10_Select1stIS9_ESt4lessIS0_ESaIS9_EE12_M_rightmostEv, symObjAddr: 0x3418, symBinAddr: 0x100007034, symSize: 0x18 }
  - { offset: 0x18FED, size: 0x8, addend: 0x0, symName: __ZNKSt8_Rb_treeI9TokenTypeSt4pairIKS0_NSt7__cxx1112basic_stringIcSt11char_traitsIcESaIcEEEESt10_Select1stIS9_ESt4lessIS0_ESaIS9_EE4sizeEv, symObjAddr: 0x3400, symBinAddr: 0x10000701C, symSize: 0x18 }
  - { offset: 0x19015, size: 0x8, addend: 0x0, symName: __ZNKSt23_Rb_tree_const_iteratorISt4pairIK9TokenTypeNSt7__cxx1112basic_stringIcSt11char_traitsIcESaIcEEEEE13_M_const_castEv, symObjAddr: 0x33D8, symBinAddr: 0x100006FF4, symSize: 0x28 }
  - { offset: 0x1903D, size: 0x8, addend: 0x0, symName: __ZNSt8_Rb_treeI9TokenTypeSt4pairIKS0_NSt7__cxx1112basic_stringIcSt11char_traitsIcESaIcEEEESt10_Select1stIS9_ESt4lessIS0_ESaIS9_EE14_M_create_nodeIJRKSt21piecewise_construct_tSt5tupleIJRS2_EESK_IJEEEEEPSt13_Rb_tree_nodeIS9_EDpOT_, symObjAddr: 0x3368, symBinAddr: 0x100006F84, symSize: 0x70 }
  - { offset: 0x190CD, size: 0x8, addend: 0x0, symName: __ZNSt10_Head_baseILm0ERK9TokenTypeLb0EEC2ES2_, symObjAddr: 0x3344, symBinAddr: 0x100006F60, symSize: 0x24 }
  - { offset: 0x190F9, size: 0x8, addend: 0x0, symName: __ZN9__gnu_cxx16__aligned_membufISt4pairIK9TokenTypeNSt7__cxx1112basic_stringIcSt11char_traitsIcESaIcEEEEE6_M_ptrEv, symObjAddr: 0x3328, symBinAddr: 0x100006F44, symSize: 0x1C }
  - { offset: 0x19121, size: 0x8, addend: 0x0, symName: __ZNSt8_Rb_treeI9TokenTypeSt4pairIKS0_NSt7__cxx1112basic_stringIcSt11char_traitsIcESaIcEEEESt10_Select1stIS9_ESt4lessIS0_ESaIS9_EE14_M_lower_boundEPSt13_Rb_tree_nodeIS9_EPSt18_Rb_tree_node_baseRS2_, symObjAddr: 0x328C, symBinAddr: 0x100006EA8, symSize: 0x9C }
  - { offset: 0x1917C, size: 0x8, addend: 0x0, symName: __ZNSt8_Rb_treeI9TokenTypeSt4pairIKS0_NSt7__cxx1112basic_stringIcSt11char_traitsIcESaIcEEEESt10_Select1stIS9_ESt4lessIS0_ESaIS9_EE6_M_endEv, symObjAddr: 0x3274, symBinAddr: 0x100006E90, symSize: 0x18 }
  - { offset: 0x191A8, size: 0x8, addend: 0x0, symName: __ZN9__gnu_cxx16__aligned_membufISt4pairIKNSt7__cxx1112basic_stringIcSt11char_traitsIcESaIcEEE9TokenTypeEE7_M_addrEv, symObjAddr: 0x3260, symBinAddr: 0x100006E7C, symSize: 0x14 }
  - { offset: 0x191D0, size: 0x8, addend: 0x0, symName: __ZNSt8_Rb_treeI9TokenTypeSt4pairIKS0_NSt7__cxx1112basic_stringIcSt11char_traitsIcESaIcEEEESt10_Select1stIS9_ESt4lessIS0_ESaIS9_EE11_M_put_nodeEPSt13_Rb_tree_nodeIS9_E, symObjAddr: 0x3214, symBinAddr: 0x100006E30, symSize: 0x4C }
  - { offset: 0x1923C, size: 0x8, addend: 0x0, symName: __ZNSt8_Rb_treeI9TokenTypeSt4pairIKS0_NSt7__cxx1112basic_stringIcSt11char_traitsIcESaIcEEEESt10_Select1stIS9_ESt4lessIS0_ESaIS9_EE15_M_destroy_nodeEPSt13_Rb_tree_nodeIS9_E, symObjAddr: 0x31B4, symBinAddr: 0x100006DD0, symSize: 0x60 }
  - { offset: 0x192D1, size: 0x8, addend: 0x0, symName: __ZNSt8_Rb_treeINSt7__cxx1112basic_stringIcSt11char_traitsIcESaIcEEESt4pairIKS5_9TokenTypeESt10_Select1stIS9_ESt4lessIS5_ESaIS9_EE10_M_insert_IRKS9_NSF_11_Alloc_nodeEEESt17_Rb_tree_iteratorIS9_EPSt18_Rb_tree_node_baseSN_OT_RT0_, symObjAddr: 0x30C4, symBinAddr: 0x100006CE0, symSize: 0xF0 }
  - { offset: 0x19375, size: 0x8, addend: 0x0, symName: __ZSt7forwardIRKSt4pairIKNSt7__cxx1112basic_stringIcSt11char_traitsIcESaIcEEE9TokenTypeEEOT_RNSt16remove_referenceISC_E4typeE, symObjAddr: 0x30B0, symBinAddr: 0x100006CCC, symSize: 0x14 }
  - { offset: 0x193A9, size: 0x8, addend: 0x0, symName: __ZNKSt10_Select1stISt4pairIKNSt7__cxx1112basic_stringIcSt11char_traitsIcESaIcEEE9TokenTypeEEclERKS9_, symObjAddr: 0x3098, symBinAddr: 0x100006CB4, symSize: 0x18 }
  - { offset: 0x193E2, size: 0x8, addend: 0x0, symName: __ZNKSt8_Rb_treeINSt7__cxx1112basic_stringIcSt11char_traitsIcESaIcEEESt4pairIKS5_9TokenTypeESt10_Select1stIS9_ESt4lessIS5_ESaIS9_EE9_M_mbeginEv, symObjAddr: 0x3080, symBinAddr: 0x100006C9C, symSize: 0x18 }
  - { offset: 0x1940A, size: 0x8, addend: 0x0, symName: __ZNSt8_Rb_treeINSt7__cxx1112basic_stringIcSt11char_traitsIcESaIcEEESt4pairIKS5_9TokenTypeESt10_Select1stIS9_ESt4lessIS5_ESaIS9_EE12_M_drop_nodeEPSt13_Rb_tree_nodeIS9_E, symObjAddr: 0x304C, symBinAddr: 0x100006C68, symSize: 0x34 }
  - { offset: 0x19440, size: 0x8, addend: 0x0, symName: __ZNSt8_Rb_treeINSt7__cxx1112basic_stringIcSt11char_traitsIcESaIcEEESt4pairIKS5_9TokenTypeESt10_Select1stIS9_ESt4lessIS5_ESaIS9_EE7_S_leftEPSt18_Rb_tree_node_base, symObjAddr: 0x3034, symBinAddr: 0x100006C50, symSize: 0x18 }
  - { offset: 0x1946A, size: 0x8, addend: 0x0, symName: __ZNSt8_Rb_treeINSt7__cxx1112basic_stringIcSt11char_traitsIcESaIcEEESt4pairIKS5_9TokenTypeESt10_Select1stIS9_ESt4lessIS5_ESaIS9_EE8_S_rightEPSt18_Rb_tree_node_base, symObjAddr: 0x301C, symBinAddr: 0x100006C38, symSize: 0x18 }
  - { offset: 0x194BA, size: 0x8, addend: 0x0, symName: __ZSt4moveIRSaISt13_Rb_tree_nodeISt4pairIKNSt7__cxx1112basic_stringIcSt11char_traitsIcESaIcEEE9TokenTypeEEEEONSt16remove_referenceIT_E4typeEOSF_, symObjAddr: 0x2FF0, symBinAddr: 0x100006C24, symSize: 0x14 }
  - { offset: 0x1950F, size: 0x8, addend: 0x0, symName: __ZNSt15__new_allocatorISt13_Rb_tree_nodeISt4pairIKNSt7__cxx1112basic_stringIcSt11char_traitsIcESaIcEEE9TokenTypeEEED2Ev, symObjAddr: 0x2FDC, symBinAddr: 0x100006C10, symSize: 0x14 }
  - { offset: 0x19547, size: 0x8, addend: 0x0, symName: __ZNSt8_Rb_treeINSt7__cxx1112basic_stringIcSt11char_traitsIcESaIcEEESt4pairIKS5_9TokenTypeESt10_Select1stIS9_ESt4lessIS5_ESaIS9_EE10_Auto_node9_M_insertES6_IPSt18_Rb_tree_node_baseSI_E, symObjAddr: 0x2F90, symBinAddr: 0x100006BC4, symSize: 0x4C }
  - { offset: 0x19591, size: 0x8, addend: 0x0, symName: __ZNKSt8_Rb_treeINSt7__cxx1112basic_stringIcSt11char_traitsIcESaIcEEESt4pairIKS5_9TokenTypeESt10_Select1stIS9_ESt4lessIS5_ESaIS9_EE10_Auto_node6_M_keyEv, symObjAddr: 0x2F70, symBinAddr: 0x100006BA4, symSize: 0x20 }
  - { offset: 0x195B9, size: 0x8, addend: 0x0, symName: __ZNSt8_Rb_treeINSt7__cxx1112basic_stringIcSt11char_traitsIcESaIcEEESt4pairIKS5_9TokenTypeESt10_Select1stIS9_ESt4lessIS5_ESaIS9_EE29_M_get_insert_hint_unique_posESt23_Rb_tree_const_iteratorIS9_ERS7_, symObjAddr: 0x2C4C, symBinAddr: 0x100006880, symSize: 0x324 }
  - { offset: 0x19683, size: 0x8, addend: 0x0, symName: __ZNSt8_Rb_treeINSt7__cxx1112basic_stringIcSt11char_traitsIcESaIcEEESt4pairIKS5_9TokenTypeESt10_Select1stIS9_ESt4lessIS5_ESaIS9_EE10_Auto_nodeD1Ev, symObjAddr: 0x2C08, symBinAddr: 0x10000683C, symSize: 0x44 }
  - { offset: 0x196F6, size: 0x8, addend: 0x0, symName: __ZNSt8_Rb_treeINSt7__cxx1112basic_stringIcSt11char_traitsIcESaIcEEESt4pairIKS5_9TokenTypeESt10_Select1stIS9_ESt4lessIS5_ESaIS9_EE10_Auto_nodeC1IJRKSt21piecewise_construct_tSt5tupleIJRS7_EESL_IJEEEEERSF_DpOT_, symObjAddr: 0x2B8C, symBinAddr: 0x1000067C0, symSize: 0x7C }
  - { offset: 0x19758, size: 0x8, addend: 0x0, symName: __ZSt7forwardISt5tupleIJRKNSt7__cxx1112basic_stringIcSt11char_traitsIcESaIcEEEEEEOT_RNSt16remove_referenceISA_E4typeE, symObjAddr: 0x2B78, symBinAddr: 0x1000067AC, symSize: 0x14 }
  - { offset: 0x197B1, size: 0x8, addend: 0x0, symName: __ZNSt11_Tuple_implILm0EJRKNSt7__cxx1112basic_stringIcSt11char_traitsIcESaIcEEEEEC2ES7_, symObjAddr: 0x2B50, symBinAddr: 0x100006784, symSize: 0x28 }
  - { offset: 0x197DD, size: 0x8, addend: 0x0, symName: __ZNKSt8_Rb_treeINSt7__cxx1112basic_stringIcSt11char_traitsIcESaIcEEESt4pairIKS5_9TokenTypeESt10_Select1stIS9_ESt4lessIS5_ESaIS9_EE8key_compEv, symObjAddr: 0x2B0C, symBinAddr: 0x10000676C, symSize: 0x18 }
  - { offset: 0x19805, size: 0x8, addend: 0x0, symName: __ZNSt8_Rb_treeINSt7__cxx1112basic_stringIcSt11char_traitsIcESaIcEEESt4pairIKS5_9TokenTypeESt10_Select1stIS9_ESt4lessIS5_ESaIS9_EE11lower_boundERS7_, symObjAddr: 0x2AC4, symBinAddr: 0x100006724, symSize: 0x48 }
  - { offset: 0x1983B, size: 0x8, addend: 0x0, symName: __ZNSt8_Rb_treeINSt7__cxx1112basic_stringIcSt11char_traitsIcESaIcEEESt4pairIKS5_9TokenTypeESt10_Select1stIS9_ESt4lessIS5_ESaIS9_EE6_S_keyEPKSt18_Rb_tree_node_base, symObjAddr: 0x2AA8, symBinAddr: 0x100006708, symSize: 0x1C }
  - { offset: 0x19868, size: 0x8, addend: 0x0, symName: __ZNSt8_Rb_treeINSt7__cxx1112basic_stringIcSt11char_traitsIcESaIcEEESt4pairIKS5_9TokenTypeESt10_Select1stIS9_ESt4lessIS5_ESaIS9_EE14_M_lower_boundEPSt13_Rb_tree_nodeIS9_EPSt18_Rb_tree_node_baseRS7_, symObjAddr: 0x2A0C, symBinAddr: 0x10000666C, symSize: 0x9C }
  - { offset: 0x198C3, size: 0x8, addend: 0x0, symName: __ZNSt8_Rb_treeINSt7__cxx1112basic_stringIcSt11char_traitsIcESaIcEEESt4pairIKS5_9TokenTypeESt10_Select1stIS9_ESt4lessIS5_ESaIS9_EE6_M_endEv, symObjAddr: 0x29F4, symBinAddr: 0x100006654, symSize: 0x18 }
  - { offset: 0x19910, size: 0x8, addend: 0x0, symName: __ZNSt17_Rb_tree_iteratorISt4pairIK9TokenTypeNSt7__cxx1112basic_stringIcSt11char_traitsIcESaIcEEEEEC1EPSt18_Rb_tree_node_base, symObjAddr: 0x29D0, symBinAddr: 0x100006630, symSize: 0x24 }
  - { offset: 0x1993C, size: 0x8, addend: 0x0, symName: __ZNSt8_Rb_treeI9TokenTypeSt4pairIKS0_NSt7__cxx1112basic_stringIcSt11char_traitsIcESaIcEEEESt10_Select1stIS9_ESt4lessIS0_ESaIS9_EE10_Auto_node9_M_insertES1_IPSt18_Rb_tree_node_baseSI_E, symObjAddr: 0x2984, symBinAddr: 0x1000065E4, symSize: 0x4C }
  - { offset: 0x19986, size: 0x8, addend: 0x0, symName: __ZNKSt8_Rb_treeI9TokenTypeSt4pairIKS0_NSt7__cxx1112basic_stringIcSt11char_traitsIcESaIcEEEESt10_Select1stIS9_ESt4lessIS0_ESaIS9_EE10_Auto_node6_M_keyEv, symObjAddr: 0x2964, symBinAddr: 0x1000065C4, symSize: 0x20 }
  - { offset: 0x199AE, size: 0x8, addend: 0x0, symName: __ZNSt8_Rb_treeI9TokenTypeSt4pairIKS0_NSt7__cxx1112basic_stringIcSt11char_traitsIcESaIcEEEESt10_Select1stIS9_ESt4lessIS0_ESaIS9_EE29_M_get_insert_hint_unique_posESt23_Rb_tree_const_iteratorIS9_ERS2_, symObjAddr: 0x2640, symBinAddr: 0x1000062A0, symSize: 0x324 }
  - { offset: 0x19A78, size: 0x8, addend: 0x0, symName: __ZNSt8_Rb_treeI9TokenTypeSt4pairIKS0_NSt7__cxx1112basic_stringIcSt11char_traitsIcESaIcEEEESt10_Select1stIS9_ESt4lessIS0_ESaIS9_EE10_Auto_nodeD1Ev, symObjAddr: 0x25FC, symBinAddr: 0x10000625C, symSize: 0x44 }
  - { offset: 0x19AEB, size: 0x8, addend: 0x0, symName: __ZNSt8_Rb_treeI9TokenTypeSt4pairIKS0_NSt7__cxx1112basic_stringIcSt11char_traitsIcESaIcEEEESt10_Select1stIS9_ESt4lessIS0_ESaIS9_EE10_Auto_nodeC1IJRKSt21piecewise_construct_tSt5tupleIJRS2_EESL_IJEEEEERSF_DpOT_, symObjAddr: 0x2580, symBinAddr: 0x1000061E0, symSize: 0x7C }
  - { offset: 0x19B4D, size: 0x8, addend: 0x0, symName: __ZSt7forwardISt5tupleIJEEEOT_RNSt16remove_referenceIS2_E4typeE, symObjAddr: 0x256C, symBinAddr: 0x1000061CC, symSize: 0x14 }
  - { offset: 0x19B84, size: 0x8, addend: 0x0, symName: __ZSt7forwardISt5tupleIJRK9TokenTypeEEEOT_RNSt16remove_referenceIS5_E4typeE, symObjAddr: 0x2558, symBinAddr: 0x1000061B8, symSize: 0x14 }
  - { offset: 0x19BBB, size: 0x8, addend: 0x0, symName: __ZSt7forwardIRKSt21piecewise_construct_tEOT_RNSt16remove_referenceIS3_E4typeE, symObjAddr: 0x2544, symBinAddr: 0x1000061A4, symSize: 0x14 }
  - { offset: 0x19C14, size: 0x8, addend: 0x0, symName: __ZNSt11_Tuple_implILm0EJRK9TokenTypeEEC2ES2_, symObjAddr: 0x251C, symBinAddr: 0x10000617C, symSize: 0x28 }
  - { offset: 0x19C40, size: 0x8, addend: 0x0, symName: __ZNSt13_Rb_tree_nodeISt4pairIK9TokenTypeNSt7__cxx1112basic_stringIcSt11char_traitsIcESaIcEEEEE9_M_valptrEv, symObjAddr: 0x24FC, symBinAddr: 0x10000615C, symSize: 0x20 }
  - { offset: 0x19C68, size: 0x8, addend: 0x0, symName: __ZNKSt8_Rb_treeI9TokenTypeSt4pairIKS0_NSt7__cxx1112basic_stringIcSt11char_traitsIcESaIcEEEESt10_Select1stIS9_ESt4lessIS0_ESaIS9_EE8key_compEv, symObjAddr: 0x24E4, symBinAddr: 0x100006144, symSize: 0x18 }
  - { offset: 0x19C90, size: 0x8, addend: 0x0, symName: __ZNSt8_Rb_treeI9TokenTypeSt4pairIKS0_NSt7__cxx1112basic_stringIcSt11char_traitsIcESaIcEEEESt10_Select1stIS9_ESt4lessIS0_ESaIS9_EE3endEv, symObjAddr: 0x24BC, symBinAddr: 0x10000611C, symSize: 0x28 }
  - { offset: 0x19CB8, size: 0x8, addend: 0x0, symName: __ZNSt8_Rb_treeI9TokenTypeSt4pairIKS0_NSt7__cxx1112basic_stringIcSt11char_traitsIcESaIcEEEESt10_Select1stIS9_ESt4lessIS0_ESaIS9_EE11lower_boundERS2_, symObjAddr: 0x2474, symBinAddr: 0x1000060D4, symSize: 0x48 }
  - { offset: 0x19CF1, size: 0x8, addend: 0x0, symName: __ZN9__gnu_cxx16__aligned_membufISt4pairIKNSt7__cxx1112basic_stringIcSt11char_traitsIcESaIcEEE9TokenTypeEE6_M_ptrEv, symObjAddr: 0x2458, symBinAddr: 0x1000060B8, symSize: 0x1C }
  - { offset: 0x19D3E, size: 0x8, addend: 0x0, symName: __ZNSt17_Rb_tree_iteratorISt4pairIKNSt7__cxx1112basic_stringIcSt11char_traitsIcESaIcEEE9TokenTypeEEC1EPSt18_Rb_tree_node_base, symObjAddr: 0x2434, symBinAddr: 0x100006094, symSize: 0x24 }
  - { offset: 0x19D6A, size: 0x8, addend: 0x0, symName: __ZNKSt8_Rb_treeI9TokenTypeSt4pairIKS0_NSt7__cxx1112basic_stringIcSt11char_traitsIcESaIcEEEESt10_Select1stIS9_ESt4lessIS0_ESaIS9_EE9_M_mbeginEv, symObjAddr: 0x241C, symBinAddr: 0x10000607C, symSize: 0x18 }
  - { offset: 0x19D92, size: 0x8, addend: 0x0, symName: __ZNSt8_Rb_treeI9TokenTypeSt4pairIKS0_NSt7__cxx1112basic_stringIcSt11char_traitsIcESaIcEEEESt10_Select1stIS9_ESt4lessIS0_ESaIS9_EE12_M_drop_nodeEPSt13_Rb_tree_nodeIS9_E, symObjAddr: 0x23E8, symBinAddr: 0x100006048, symSize: 0x34 }
  - { offset: 0x19DC8, size: 0x8, addend: 0x0, symName: __ZNSt8_Rb_treeI9TokenTypeSt4pairIKS0_NSt7__cxx1112basic_stringIcSt11char_traitsIcESaIcEEEESt10_Select1stIS9_ESt4lessIS0_ESaIS9_EE7_S_leftEPSt18_Rb_tree_node_base, symObjAddr: 0x23D0, symBinAddr: 0x100006030, symSize: 0x18 }
  - { offset: 0x19DF2, size: 0x8, addend: 0x0, symName: __ZNSt8_Rb_treeI9TokenTypeSt4pairIKS0_NSt7__cxx1112basic_stringIcSt11char_traitsIcESaIcEEEESt10_Select1stIS9_ESt4lessIS0_ESaIS9_EE8_S_rightEPSt18_Rb_tree_node_base, symObjAddr: 0x23B8, symBinAddr: 0x100006018, symSize: 0x18 }
  - { offset: 0x19E33, size: 0x8, addend: 0x0, symName: __ZNSt8_Rb_treeINSt7__cxx1112basic_stringIcSt11char_traitsIcESaIcEEESt4pairIKS5_9TokenTypeESt10_Select1stIS9_ESt4lessIS5_ESaIS9_EE17_M_insert_unique_IRKS9_NSF_11_Alloc_nodeEEESt17_Rb_tree_iteratorIS9_ESt23_Rb_tree_const_iteratorIS9_EOT_RT0_, symObjAddr: 0x2328, symBinAddr: 0x100005F88, symSize: 0x90 }
  - { offset: 0x19ED6, size: 0x8, addend: 0x0, symName: __ZNSt8_Rb_treeINSt7__cxx1112basic_stringIcSt11char_traitsIcESaIcEEESt4pairIKS5_9TokenTypeESt10_Select1stIS9_ESt4lessIS5_ESaIS9_EE11_Alloc_nodeC1ERSF_, symObjAddr: 0x2304, symBinAddr: 0x100005F64, symSize: 0x24 }
  - { offset: 0x19F02, size: 0x8, addend: 0x0, symName: __ZNKSt16initializer_listISt4pairIKNSt7__cxx1112basic_stringIcSt11char_traitsIcESaIcEEE9TokenTypeEE4sizeEv, symObjAddr: 0x22EC, symBinAddr: 0x100005F4C, symSize: 0x18 }
  - { offset: 0x19F2A, size: 0x8, addend: 0x0, symName: __ZNSt8_Rb_treeINSt7__cxx1112basic_stringIcSt11char_traitsIcESaIcEEESt4pairIKS5_9TokenTypeESt10_Select1stIS9_ESt4lessIS5_ESaIS9_EE8_M_beginEv, symObjAddr: 0x22D0, symBinAddr: 0x100005F30, symSize: 0x1C }
  - { offset: 0x19F52, size: 0x8, addend: 0x0, symName: __ZNSt8_Rb_treeINSt7__cxx1112basic_stringIcSt11char_traitsIcESaIcEEESt4pairIKS5_9TokenTypeESt10_Select1stIS9_ESt4lessIS5_ESaIS9_EE8_M_eraseEPSt13_Rb_tree_nodeIS9_E, symObjAddr: 0x226C, symBinAddr: 0x100005ECC, symSize: 0x64 }
  - { offset: 0x19FE1, size: 0x8, addend: 0x0, symName: __ZNSt8_Rb_treeINSt7__cxx1112basic_stringIcSt11char_traitsIcESaIcEEESt4pairIKS5_9TokenTypeESt10_Select1stIS9_ESt4lessIS5_ESaIS9_EE13_Rb_tree_implISD_Lb1EEC1ERKSD_OSaISt13_Rb_tree_nodeIS9_EE, symObjAddr: 0x2204, symBinAddr: 0x100005E64, symSize: 0x68 }
  - { offset: 0x1A0C1, size: 0x8, addend: 0x0, symName: __ZNSt8_Rb_treeINSt7__cxx1112basic_stringIcSt11char_traitsIcESaIcEEESt4pairIKS5_9TokenTypeESt10_Select1stIS9_ESt4lessIS5_ESaIS9_EE22_M_emplace_hint_uniqueIJRKSt21piecewise_construct_tSt5tupleIJRS7_EESK_IJEEEEESt17_Rb_tree_iteratorIS9_ESt23_Rb_tree_const_iteratorIS9_EDpOT_, symObjAddr: 0x212C, symBinAddr: 0x100005D8C, symSize: 0xD8 }
  - { offset: 0x1A177, size: 0x8, addend: 0x0, symName: __ZNSt23_Rb_tree_const_iteratorISt4pairIKNSt7__cxx1112basic_stringIcSt11char_traitsIcESaIcEEE9TokenTypeEEC1ERKSt17_Rb_tree_iteratorIS9_E, symObjAddr: 0x2104, symBinAddr: 0x100005D64, symSize: 0x28 }
  - { offset: 0x1A1D3, size: 0x8, addend: 0x0, symName: __ZNSt5tupleIJRKNSt7__cxx1112basic_stringIcSt11char_traitsIcESaIcEEEEEC1ILb1ELb1EEES7_, symObjAddr: 0x20DC, symBinAddr: 0x100005D3C, symSize: 0x28 }
  - { offset: 0x1A20A, size: 0x8, addend: 0x0, symName: __ZNKSt3mapINSt7__cxx1112basic_stringIcSt11char_traitsIcESaIcEEE9TokenTypeSt4lessIS5_ESaISt4pairIKS5_S6_EEE8key_compEv, symObjAddr: 0x2088, symBinAddr: 0x100005D10, symSize: 0x2C }
  - { offset: 0x1A235, size: 0x8, addend: 0x0, symName: __ZSteqRKSt17_Rb_tree_iteratorISt4pairIKNSt7__cxx1112basic_stringIcSt11char_traitsIcESaIcEEE9TokenTypeEESC_, symObjAddr: 0x2058, symBinAddr: 0x100005CE0, symSize: 0x30 }
  - { offset: 0x1A273, size: 0x8, addend: 0x0, symName: __ZNSt3mapINSt7__cxx1112basic_stringIcSt11char_traitsIcESaIcEEE9TokenTypeSt4lessIS5_ESaISt4pairIKS5_S6_EEE11lower_boundERSA_, symObjAddr: 0x2034, symBinAddr: 0x100005CBC, symSize: 0x24 }
  - { offset: 0x1A2AC, size: 0x8, addend: 0x0, symName: __ZNSt8_Rb_treeINSt7__cxx1112basic_stringIcSt11char_traitsIcESaIcEEESt4pairIKS5_9TokenTypeESt10_Select1stIS9_ESt4lessIS5_ESaIS9_EE4findERS7_, symObjAddr: 0x1F8C, symBinAddr: 0x100005C14, symSize: 0xA8 }
  - { offset: 0x1A2F6, size: 0x8, addend: 0x0, symName: __ZNSt8_Rb_treeI9TokenTypeSt4pairIKS0_NSt7__cxx1112basic_stringIcSt11char_traitsIcESaIcEEEESt10_Select1stIS9_ESt4lessIS0_ESaIS9_EE22_M_emplace_hint_uniqueIJRKSt21piecewise_construct_tSt5tupleIJRS2_EESK_IJEEEEESt17_Rb_tree_iteratorIS9_ESt23_Rb_tree_const_iteratorIS9_EDpOT_, symObjAddr: 0x1EB4, symBinAddr: 0x100005B3C, symSize: 0xD8 }
  - { offset: 0x1A3AC, size: 0x8, addend: 0x0, symName: __ZNSt23_Rb_tree_const_iteratorISt4pairIK9TokenTypeNSt7__cxx1112basic_stringIcSt11char_traitsIcESaIcEEEEEC1ERKSt17_Rb_tree_iteratorIS9_E, symObjAddr: 0x1E8C, symBinAddr: 0x100005B14, symSize: 0x28 }
  - { offset: 0x1A408, size: 0x8, addend: 0x0, symName: __ZNSt5tupleIJRK9TokenTypeEEC1ILb1ELb1EEES2_, symObjAddr: 0x1E64, symBinAddr: 0x100005AEC, symSize: 0x28 }
  - { offset: 0x1A43F, size: 0x8, addend: 0x0, symName: __ZNKSt4lessI9TokenTypeEclERKS0_S3_, symObjAddr: 0x1E30, symBinAddr: 0x100005AB8, symSize: 0x34 }
  - { offset: 0x1A489, size: 0x8, addend: 0x0, symName: __ZNKSt17_Rb_tree_iteratorISt4pairIK9TokenTypeNSt7__cxx1112basic_stringIcSt11char_traitsIcESaIcEEEEEdeEv, symObjAddr: 0x1E10, symBinAddr: 0x100005A98, symSize: 0x20 }
  - { offset: 0x1A4B1, size: 0x8, addend: 0x0, symName: __ZNKSt3mapI9TokenTypeNSt7__cxx1112basic_stringIcSt11char_traitsIcESaIcEEESt4lessIS0_ESaISt4pairIKS0_S6_EEE8key_compEv, symObjAddr: 0x1DE4, symBinAddr: 0x100005A6C, symSize: 0x2C }
  - { offset: 0x1A4DC, size: 0x8, addend: 0x0, symName: __ZSteqRKSt17_Rb_tree_iteratorISt4pairIK9TokenTypeNSt7__cxx1112basic_stringIcSt11char_traitsIcESaIcEEEEESC_, symObjAddr: 0x1DB4, symBinAddr: 0x100005A3C, symSize: 0x30 }
  - { offset: 0x1A51A, size: 0x8, addend: 0x0, symName: __ZNSt3mapI9TokenTypeNSt7__cxx1112basic_stringIcSt11char_traitsIcESaIcEEESt4lessIS0_ESaISt4pairIKS0_S6_EEE3endEv, symObjAddr: 0x1D98, symBinAddr: 0x100005A20, symSize: 0x1C }
  - { offset: 0x1A542, size: 0x8, addend: 0x0, symName: __ZNSt3mapI9TokenTypeNSt7__cxx1112basic_stringIcSt11char_traitsIcESaIcEEESt4lessIS0_ESaISt4pairIKS0_S6_EEE11lower_boundERSA_, symObjAddr: 0x1D74, symBinAddr: 0x1000059FC, symSize: 0x24 }
  - { offset: 0x1A57B, size: 0x8, addend: 0x0, symName: __ZNSt13_Rb_tree_nodeISt4pairIKNSt7__cxx1112basic_stringIcSt11char_traitsIcESaIcEEE9TokenTypeEE9_M_valptrEv, symObjAddr: 0x1D54, symBinAddr: 0x1000059DC, symSize: 0x20 }
  - { offset: 0x1A5A3, size: 0x8, addend: 0x0, symName: __ZNSt8_Rb_treeINSt7__cxx1112basic_stringIcSt11char_traitsIcESaIcEEESt4pairIKS5_9TokenTypeESt10_Select1stIS9_ESt4lessIS5_ESaIS9_EE3endEv, symObjAddr: 0x1D2C, symBinAddr: 0x1000059B4, symSize: 0x28 }
  - { offset: 0x1A5CB, size: 0x8, addend: 0x0, symName: __ZNSt8_Rb_treeINSt7__cxx1112basic_stringIcSt11char_traitsIcESaIcEEESt4pairIKS5_9TokenTypeESt10_Select1stIS9_ESt4lessIS5_ESaIS9_EE5beginEv, symObjAddr: 0x1D04, symBinAddr: 0x10000598C, symSize: 0x28 }
  - { offset: 0x1A5F3, size: 0x8, addend: 0x0, symName: __ZNSt8_Rb_treeI9TokenTypeSt4pairIKS0_NSt7__cxx1112basic_stringIcSt11char_traitsIcESaIcEEEESt10_Select1stIS9_ESt4lessIS0_ESaIS9_EE8_M_beginEv, symObjAddr: 0x1CE8, symBinAddr: 0x100005970, symSize: 0x1C }
  - { offset: 0x1A61B, size: 0x8, addend: 0x0, symName: __ZNSt8_Rb_treeI9TokenTypeSt4pairIKS0_NSt7__cxx1112basic_stringIcSt11char_traitsIcESaIcEEEESt10_Select1stIS9_ESt4lessIS0_ESaIS9_EE8_M_eraseEPSt13_Rb_tree_nodeIS9_E, symObjAddr: 0x1C84, symBinAddr: 0x10000590C, symSize: 0x64 }
  - { offset: 0x1A699, size: 0x8, addend: 0x0, symName: __ZNSt15__new_allocatorISt13_Rb_tree_nodeISt4pairIK9TokenTypeNSt7__cxx1112basic_stringIcSt11char_traitsIcESaIcEEEEEED2Ev, symObjAddr: 0x1C70, symBinAddr: 0x1000058F8, symSize: 0x14 }
  - { offset: 0x1A6D5, size: 0x8, addend: 0x0, symName: __ZNSt20_Rb_tree_key_compareISt4lessI9TokenTypeEEC2Ev, symObjAddr: 0x1C5C, symBinAddr: 0x1000058E4, symSize: 0x14 }
  - { offset: 0x1A70D, size: 0x8, addend: 0x0, symName: __ZNSt8_Rb_treeINSt7__cxx1112basic_stringIcSt11char_traitsIcESaIcEEESt4pairIKS5_9TokenTypeESt10_Select1stIS9_ESt4lessIS5_ESaIS9_EE22_M_insert_range_uniqueIPKS9_EENSt9enable_ifIXsrSt7is_sameIS9_NSt15iterator_traitsIT_E10value_typeEE5valueEvE4typeESM_SM_, symObjAddr: 0x1BDC, symBinAddr: 0x100005864, symSize: 0x80 }
  - { offset: 0x1A771, size: 0x8, addend: 0x0, symName: __ZNKSt16initializer_listISt4pairIKNSt7__cxx1112basic_stringIcSt11char_traitsIcESaIcEEE9TokenTypeEE3endEv, symObjAddr: 0x1B94, symBinAddr: 0x10000581C, symSize: 0x48 }
  - { offset: 0x1A799, size: 0x8, addend: 0x0, symName: __ZNKSt16initializer_listISt4pairIKNSt7__cxx1112basic_stringIcSt11char_traitsIcESaIcEEE9TokenTypeEE5beginEv, symObjAddr: 0x1B7C, symBinAddr: 0x100005804, symSize: 0x18 }
  - { offset: 0x1A7E2, size: 0x8, addend: 0x0, symName: __ZNSt8_Rb_treeINSt7__cxx1112basic_stringIcSt11char_traitsIcESaIcEEESt4pairIKS5_9TokenTypeESt10_Select1stIS9_ESt4lessIS5_ESaIS9_EED1Ev, symObjAddr: 0x1B48, symBinAddr: 0x1000057D0, symSize: 0x34 }
  - { offset: 0x1A838, size: 0x8, addend: 0x0, symName: __ZNSt8_Rb_treeINSt7__cxx1112basic_stringIcSt11char_traitsIcESaIcEEESt4pairIKS5_9TokenTypeESt10_Select1stIS9_ESt4lessIS5_ESaIS9_EEC1ERKSD_RKSE_, symObjAddr: 0x1AD0, symBinAddr: 0x100005758, symSize: 0x78 }
  - { offset: 0x1A91E, size: 0x8, addend: 0x0, symName: __ZNSt8_Rb_treeINSt7__cxx1112basic_stringIcSt11char_traitsIcESaIcEEESt4pairIKS5_9TokenTypeESt10_Select1stIS9_ESt4lessIS5_ESaIS9_EE13_Rb_tree_implISD_Lb1EED1Ev, symObjAddr: 0x1AA4, symBinAddr: 0x10000572C, symSize: 0x2C }
  - { offset: 0x1A9A6, size: 0x8, addend: 0x0, symName: __ZNSt15__new_allocatorISt4pairIKNSt7__cxx1112basic_stringIcSt11char_traitsIcESaIcEEE9TokenTypeEED2Ev, symObjAddr: 0x1A90, symBinAddr: 0x100005718, symSize: 0x14 }
  - { offset: 0x1A9DE, size: 0x8, addend: 0x0, symName: __ZNSt3mapINSt7__cxx1112basic_stringIcSt11char_traitsIcESaIcEEE9TokenTypeSt4lessIS5_ESaISt4pairIKS5_S6_EEEixERSA_, symObjAddr: 0x1808, symBinAddr: 0x10000562C, symSize: 0xEC }
  - { offset: 0x1AA28, size: 0x8, addend: 0x0, symName: __ZNKSt17_Rb_tree_iteratorISt4pairIKNSt7__cxx1112basic_stringIcSt11char_traitsIcESaIcEEE9TokenTypeEEptEv, symObjAddr: 0x17E8, symBinAddr: 0x10000560C, symSize: 0x20 }
  - { offset: 0x1AA50, size: 0x8, addend: 0x0, symName: __ZNSt3mapINSt7__cxx1112basic_stringIcSt11char_traitsIcESaIcEEE9TokenTypeSt4lessIS5_ESaISt4pairIKS5_S6_EEE4findERSA_, symObjAddr: 0x17C4, symBinAddr: 0x1000055E8, symSize: 0x24 }
  - { offset: 0x1AA89, size: 0x8, addend: 0x0, symName: __ZNSt3mapI9TokenTypeNSt7__cxx1112basic_stringIcSt11char_traitsIcESaIcEEESt4lessIS0_ESaISt4pairIKS0_S6_EEEixERSA_, symObjAddr: 0x16D8, symBinAddr: 0x1000054FC, symSize: 0xEC }
  - { offset: 0x1AB0A, size: 0x8, addend: 0x0, symName: __ZNSt4pairINSt7__cxx1112basic_stringIcSt11char_traitsIcESaIcEEE9TokenTypeEC1IKS5_S6_Lb1EEERKS_IT_T0_E, symObjAddr: 0x16A0, symBinAddr: 0x1000054C4, symSize: 0x38 }
  - { offset: 0x1AB48, size: 0x8, addend: 0x0, symName: __ZNKSt17_Rb_tree_iteratorISt4pairIKNSt7__cxx1112basic_stringIcSt11char_traitsIcESaIcEEE9TokenTypeEEdeEv, symObjAddr: 0x1680, symBinAddr: 0x1000054A4, symSize: 0x20 }
  - { offset: 0x1AB70, size: 0x8, addend: 0x0, symName: __ZNSt17_Rb_tree_iteratorISt4pairIKNSt7__cxx1112basic_stringIcSt11char_traitsIcESaIcEEE9TokenTypeEEppEv, symObjAddr: 0x1650, symBinAddr: 0x100005474, symSize: 0x30 }
  - { offset: 0x1AB95, size: 0x8, addend: 0x0, symName: __ZStneRKSt17_Rb_tree_iteratorISt4pairIKNSt7__cxx1112basic_stringIcSt11char_traitsIcESaIcEEE9TokenTypeEESC_, symObjAddr: 0x1620, symBinAddr: 0x100005444, symSize: 0x30 }
  - { offset: 0x1ABD3, size: 0x8, addend: 0x0, symName: __ZNSt3mapINSt7__cxx1112basic_stringIcSt11char_traitsIcESaIcEEE9TokenTypeSt4lessIS5_ESaISt4pairIKS5_S6_EEE3endEv, symObjAddr: 0x1604, symBinAddr: 0x100005428, symSize: 0x1C }
  - { offset: 0x1ABFB, size: 0x8, addend: 0x0, symName: __ZNSt3mapINSt7__cxx1112basic_stringIcSt11char_traitsIcESaIcEEE9TokenTypeSt4lessIS5_ESaISt4pairIKS5_S6_EEE5beginEv, symObjAddr: 0x15E8, symBinAddr: 0x10000540C, symSize: 0x1C }
  - { offset: 0x1AC44, size: 0x8, addend: 0x0, symName: __ZNSt8_Rb_treeI9TokenTypeSt4pairIKS0_NSt7__cxx1112basic_stringIcSt11char_traitsIcESaIcEEEESt10_Select1stIS9_ESt4lessIS0_ESaIS9_EED1Ev, symObjAddr: 0x15B4, symBinAddr: 0x1000053D8, symSize: 0x34 }
  - { offset: 0x1AC9D, size: 0x8, addend: 0x0, symName: __ZNSt8_Rb_treeI9TokenTypeSt4pairIKS0_NSt7__cxx1112basic_stringIcSt11char_traitsIcESaIcEEEESt10_Select1stIS9_ESt4lessIS0_ESaIS9_EE13_Rb_tree_implISD_Lb1EEC1Ev, symObjAddr: 0x1570, symBinAddr: 0x100005394, symSize: 0x44 }
  - { offset: 0x1AD41, size: 0x8, addend: 0x0, symName: __ZNSt3mapINSt7__cxx1112basic_stringIcSt11char_traitsIcESaIcEEE9TokenTypeSt4lessIS5_ESaISt4pairIKS5_S6_EEEC1ESt16initializer_listISB_ERKS8_RKSC_, symObjAddr: 0x14B0, symBinAddr: 0x1000052D4, symSize: 0xC0 }
  - { offset: 0x1AE32, size: 0x8, addend: 0x0, symName: __ZSt7forwardIRA8_KcEOT_RNSt16remove_referenceIS3_E4typeE, symObjAddr: 0x149C, symBinAddr: 0x1000052C0, symSize: 0x14 }
  - { offset: 0x1AE6F, size: 0x8, addend: 0x0, symName: __ZSt7forwardIRA7_KcEOT_RNSt16remove_referenceIS3_E4typeE, symObjAddr: 0x1488, symBinAddr: 0x1000052AC, symSize: 0x14 }
  - { offset: 0x1AEAC, size: 0x8, addend: 0x0, symName: __ZSt7forwardIRA2_KcEOT_RNSt16remove_referenceIS3_E4typeE, symObjAddr: 0x1474, symBinAddr: 0x100005298, symSize: 0x14 }
  - { offset: 0x1AEE9, size: 0x8, addend: 0x0, symName: __ZSt7forwardIRA4_KcEOT_RNSt16remove_referenceIS3_E4typeE, symObjAddr: 0x1460, symBinAddr: 0x100005284, symSize: 0x14 }
  - { offset: 0x1AF26, size: 0x8, addend: 0x0, symName: __ZSt7forwardIRA11_KcEOT_RNSt16remove_referenceIS3_E4typeE, symObjAddr: 0x144C, symBinAddr: 0x100005270, symSize: 0x14 }
  - { offset: 0x1AF63, size: 0x8, addend: 0x0, symName: __ZSt7forwardIRA5_KcEOT_RNSt16remove_referenceIS3_E4typeE, symObjAddr: 0x1438, symBinAddr: 0x10000525C, symSize: 0x14 }
  - { offset: 0x1AFA0, size: 0x8, addend: 0x0, symName: __ZSt7forwardI9TokenTypeEOT_RNSt16remove_referenceIS1_E4typeE, symObjAddr: 0x1374, symBinAddr: 0x100005248, symSize: 0x14 }
  - { offset: 0x1AFDD, size: 0x8, addend: 0x0, symName: __ZSt7forwardIRA3_KcEOT_RNSt16remove_referenceIS3_E4typeE, symObjAddr: 0x1360, symBinAddr: 0x100005234, symSize: 0x14 }
  - { offset: 0x1B046, size: 0x8, addend: 0x0, symName: __ZN5Lexer7isSpaceEc, symObjAddr: 0x1288, symBinAddr: 0x1000051E0, symSize: 0x54 }
  - { offset: 0x1B081, size: 0x8, addend: 0x0, symName: __ZN5Lexer14isAlphaNumericEc, symObjAddr: 0x1228, symBinAddr: 0x100005180, symSize: 0x60 }
  - { offset: 0x1B0BC, size: 0x8, addend: 0x0, symName: __ZN5Lexer7isDigitEc, symObjAddr: 0x11E0, symBinAddr: 0x100005138, symSize: 0x48 }
  - { offset: 0x1B0F7, size: 0x8, addend: 0x0, symName: __ZN5Lexer7isAlphaEc, symObjAddr: 0x1180, symBinAddr: 0x1000050D8, symSize: 0x60 }
  - { offset: 0x1B132, size: 0x8, addend: 0x0, symName: __ZN5Lexer13parseOperatorEv, symObjAddr: 0x1028, symBinAddr: 0x100004F80, symSize: 0x158 }
  - { offset: 0x1B1ED, size: 0x8, addend: 0x0, symName: __ZN5Lexer11parseStringEv, symObjAddr: 0xE6C, symBinAddr: 0x100004DC4, symSize: 0x1BC }
  - { offset: 0x1B2A7, size: 0x8, addend: 0x0, symName: __ZN5Lexer11parseNumberEv, symObjAddr: 0xD08, symBinAddr: 0x100004C60, symSize: 0x164 }
  - { offset: 0x1B361, size: 0x8, addend: 0x0, symName: __ZN5Lexer15parseIdentifierEv, symObjAddr: 0xB34, symBinAddr: 0x100004A8C, symSize: 0x1D4 }
  - { offset: 0x1B41D, size: 0x8, addend: 0x0, symName: __ZN5Lexer8tokenizeEv, symObjAddr: 0x6E4, symBinAddr: 0x10000463C, symSize: 0x450 }
  - { offset: 0x1B55B, size: 0x8, addend: 0x0, symName: __ZNSt4pairINSt7__cxx1112basic_stringIcSt11char_traitsIcESaIcEEE9TokenTypeED1Ev, symObjAddr: 0x6C4, symBinAddr: 0x10000461C, symSize: 0x20 }
  - { offset: 0x1B58F, size: 0x8, addend: 0x0, symName: __ZN5TokenaSEOS_, symObjAddr: 0x684, symBinAddr: 0x1000045DC, symSize: 0x40 }
  - { offset: 0x1B5DB, size: 0x8, addend: 0x0, symName: __ZN5TokenC1Ev, symObjAddr: 0x660, symBinAddr: 0x1000045B8, symSize: 0x24 }
  - { offset: 0x1B624, size: 0x8, addend: 0x0, symName: __ZN5TokenD1Ev, symObjAddr: 0x63C, symBinAddr: 0x100004594, symSize: 0x24 }
  - { offset: 0x1B670, size: 0x8, addend: 0x0, symName: __ZN5LexerC1ENSt7__cxx1112basic_stringIcSt11char_traitsIcESaIcEEE, symObjAddr: 0x60C, symBinAddr: 0x100004564, symSize: 0x30 }
  - { offset: 0x1B6A1, size: 0x8, addend: 0x0, symName: __ZN5LexerC2ENSt7__cxx1112basic_stringIcSt11char_traitsIcESaIcEEE, symObjAddr: 0x5DC, symBinAddr: 0x100004534, symSize: 0x30 }
  - { offset: 0x1B6E6, size: 0x8, addend: 0x0, symName: __ZNSt3mapI9TokenTypeNSt7__cxx1112basic_stringIcSt11char_traitsIcESaIcEEESt4lessIS0_ESaISt4pairIKS0_S6_EEEC1Ev, symObjAddr: 0x5BC, symBinAddr: 0x100004514, symSize: 0x20 }
  - { offset: 0x1B722, size: 0x8, addend: 0x0, symName: __ZNSt8_Rb_treeI9TokenTypeSt4pairIKS0_NSt7__cxx1112basic_stringIcSt11char_traitsIcESaIcEEEESt10_Select1stIS9_ESt4lessIS0_ESaIS9_EEC1Ev, symObjAddr: 0x59C, symBinAddr: 0x1000044F4, symSize: 0x20 }
  - { offset: 0x1B76C, size: 0x8, addend: 0x0, symName: __ZNSt8_Rb_treeI9TokenTypeSt4pairIKS0_NSt7__cxx1112basic_stringIcSt11char_traitsIcESaIcEEEESt10_Select1stIS9_ESt4lessIS0_ESaIS9_EE13_Rb_tree_implISD_Lb1EED1Ev, symObjAddr: 0x570, symBinAddr: 0x1000044C8, symSize: 0x2C }
  - { offset: 0x1B7F7, size: 0x8, addend: 0x0, symName: __ZNSt4pairIKNSt7__cxx1112basic_stringIcSt11char_traitsIcESaIcEEE9TokenTypeEC1IRA8_KcS7_Lb1EEEOT_OT0_, symObjAddr: 0x4E0, symBinAddr: 0x100004438, symSize: 0x90 }
  - { offset: 0x1B905, size: 0x8, addend: 0x0, symName: __ZNSt4pairIKNSt7__cxx1112basic_stringIcSt11char_traitsIcESaIcEEE9TokenTypeEC1IRA7_KcS7_Lb1EEEOT_OT0_, symObjAddr: 0x450, symBinAddr: 0x1000043A8, symSize: 0x90 }
  - { offset: 0x1BA13, size: 0x8, addend: 0x0, symName: __ZNSt4pairIKNSt7__cxx1112basic_stringIcSt11char_traitsIcESaIcEEE9TokenTypeEC1IRA2_KcS7_Lb1EEEOT_OT0_, symObjAddr: 0x3C0, symBinAddr: 0x100004318, symSize: 0x90 }
  - { offset: 0x1BB21, size: 0x8, addend: 0x0, symName: __ZNSt4pairIKNSt7__cxx1112basic_stringIcSt11char_traitsIcESaIcEEE9TokenTypeEC1IRA4_KcS7_Lb1EEEOT_OT0_, symObjAddr: 0x330, symBinAddr: 0x100004288, symSize: 0x90 }
  - { offset: 0x1BC2F, size: 0x8, addend: 0x0, symName: __ZNSt4pairIKNSt7__cxx1112basic_stringIcSt11char_traitsIcESaIcEEE9TokenTypeEC1IRA11_KcS7_Lb1EEEOT_OT0_, symObjAddr: 0x2A0, symBinAddr: 0x1000041F8, symSize: 0x90 }
  - { offset: 0x1BD3D, size: 0x8, addend: 0x0, symName: __ZNSt4pairIKNSt7__cxx1112basic_stringIcSt11char_traitsIcESaIcEEE9TokenTypeEC1IRA5_KcS7_Lb1EEEOT_OT0_, symObjAddr: 0x210, symBinAddr: 0x100004168, symSize: 0x90 }
  - { offset: 0x1BE4B, size: 0x8, addend: 0x0, symName: __ZNSt4pairIKNSt7__cxx1112basic_stringIcSt11char_traitsIcESaIcEEE9TokenTypeEC1IRA6_KcS7_Lb1EEEOT_OT0_, symObjAddr: 0x180, symBinAddr: 0x1000040D8, symSize: 0x90 }
  - { offset: 0x1BF59, size: 0x8, addend: 0x0, symName: __ZNSt4pairIKNSt7__cxx1112basic_stringIcSt11char_traitsIcESaIcEEE9TokenTypeEC1IRA3_KcS7_Lb1EEEOT_OT0_, symObjAddr: 0xF0, symBinAddr: 0x100004048, symSize: 0x90 }
  - { offset: 0x1C049, size: 0x8, addend: 0x0, symName: __ZNSt4pairIKNSt7__cxx1112basic_stringIcSt11char_traitsIcESaIcEEE9TokenTypeED1Ev, symObjAddr: 0xD0, symBinAddr: 0x100004028, symSize: 0x20 }
  - { offset: 0x3827C, size: 0x8, addend: 0x0, symName: __ZStL8__ioinit, symObjAddr: 0xC34A8, symBinAddr: 0x100028008, symSize: 0x0 }
  - { offset: 0x394B4, size: 0x8, addend: 0x0, symName: __ZL4path, symObjAddr: 0xC34B0, symBinAddr: 0x100028010, symSize: 0x0 }
  - { offset: 0x394CB, size: 0x8, addend: 0x0, symName: __ZL8MainFile, symObjAddr: 0xC34D0, symBinAddr: 0x100028030, symSize: 0x0 }
  - { offset: 0x394E2, size: 0x8, addend: 0x0, symName: _mainFileFlag, symObjAddr: 0xC34F0, symBinAddr: 0x1000280E8, symSize: 0x0 }
  - { offset: 0x395A3, size: 0x8, addend: 0x0, symName: __Z5filesB5cxx11, symObjAddr: 0xC34F8, symBinAddr: 0x1000280F0, symSize: 0x0 }
  - { offset: 0x399D9, size: 0x8, addend: 0x0, symName: __ZNSt10_Head_baseILm1ENSt10filesystem7__cxx114path5_List13_Impl_deleterELb1EE7_M_headERS5_, symObjAddr: 0x4B78, symBinAddr: 0x10000B8A4, symSize: 0x14 }
  - { offset: 0x39A01, size: 0x8, addend: 0x0, symName: __ZNSt10_Head_baseILm0EPNSt10filesystem7__cxx114path5_List5_ImplELb0EE7_M_headERS6_, symObjAddr: 0x4B64, symBinAddr: 0x10000B890, symSize: 0x14 }
  - { offset: 0x39A2F, size: 0x8, addend: 0x0, symName: __ZNSt19istreambuf_iteratorIcSt11char_traitsIcEE9_S_is_eofEi, symObjAddr: 0x47D8, symBinAddr: 0x10000B868, symSize: 0x28 }
  - { offset: 0x39A6A, size: 0x8, addend: 0x0, symName: __ZNKSt19istreambuf_iteratorIcSt11char_traitsIcEE9_M_at_eofEv, symObjAddr: 0x47B8, symBinAddr: 0x10000B848, symSize: 0x20 }
  - { offset: 0x39A96, size: 0x8, addend: 0x0, symName: __ZN9__gnu_cxx16__aligned_bufferISt4pairIKNSt7__cxx1112basic_stringIcSt11char_traitsIcESaIcEEEP5ValueEE7_M_addrEv, symObjAddr: 0x46CC, symBinAddr: 0x10000B834, symSize: 0x14 }
  - { offset: 0x39ABB, size: 0x8, addend: 0x0, symName: __ZNSt11_Tuple_implILm1EJNSt10filesystem7__cxx114path5_List13_Impl_deleterEEE7_M_headERS5_, symObjAddr: 0x46B0, symBinAddr: 0x10000B818, symSize: 0x1C }
  - { offset: 0x39AE5, size: 0x8, addend: 0x0, symName: __ZNSt11_Tuple_implILm0EJPNSt10filesystem7__cxx114path5_List5_ImplENS3_13_Impl_deleterEEE7_M_headERS7_, symObjAddr: 0x4694, symBinAddr: 0x10000B7FC, symSize: 0x1C }
  - { offset: 0x39B12, size: 0x8, addend: 0x0, symName: __ZNKSt19istreambuf_iteratorIcSt11char_traitsIcEE6_M_getEv, symObjAddr: 0x407C, symBinAddr: 0x10000B770, symSize: 0x8C }
  - { offset: 0x39B4A, size: 0x8, addend: 0x0, symName: __ZNKSt19istreambuf_iteratorIcSt11char_traitsIcEE5equalERKS2_, symObjAddr: 0x403C, symBinAddr: 0x10000B730, symSize: 0x40 }
  - { offset: 0x39B81, size: 0x8, addend: 0x0, symName: __ZNK9__gnu_cxx17__normal_iteratorIPNSt7__cxx1112basic_stringIcSt11char_traitsIcESaIcEEESt6vectorIS6_SaIS6_EEEdeEv, symObjAddr: 0x3FD8, symBinAddr: 0x10000B718, symSize: 0x18 }
  - { offset: 0x39BA9, size: 0x8, addend: 0x0, symName: __ZNK9__gnu_cxx17__normal_iteratorIPNSt7__cxx1112basic_stringIcSt11char_traitsIcESaIcEEESt6vectorIS6_SaIS6_EEEmiEl, symObjAddr: 0x3F94, symBinAddr: 0x10000B6D4, symSize: 0x44 }
  - { offset: 0x39C20, size: 0x8, addend: 0x0, symName: __ZN9__gnu_cxx16__aligned_bufferISt4pairIKNSt7__cxx1112basic_stringIcSt11char_traitsIcESaIcEEEP5ValueEE6_M_ptrEv, symObjAddr: 0x3D84, symBinAddr: 0x10000B6B8, symSize: 0x1C }
  - { offset: 0x39C6D, size: 0x8, addend: 0x0, symName: __ZNSt8__detail19_Node_iterator_baseISt4pairIKNSt7__cxx1112basic_stringIcSt11char_traitsIcESaIcEEEP5ValueELb1EEC2EPNS_10_Hash_nodeISB_Lb1EEE, symObjAddr: 0x3D60, symBinAddr: 0x10000B694, symSize: 0x24 }
  - { offset: 0x39C96, size: 0x8, addend: 0x0, symName: __ZSt12__get_helperILm1ENSt10filesystem7__cxx114path5_List13_Impl_deleterEJEERT0_RSt11_Tuple_implIXT_EJS5_DpT1_EE, symObjAddr: 0x3D14, symBinAddr: 0x10000B678, symSize: 0x1C }
  - { offset: 0x39CD9, size: 0x8, addend: 0x0, symName: __ZSt12__get_helperILm0EPNSt10filesystem7__cxx114path5_List5_ImplEJNS3_13_Impl_deleterEEERT0_RSt11_Tuple_implIXT_EJS7_DpT1_EE, symObjAddr: 0x3CF8, symBinAddr: 0x10000B65C, symSize: 0x1C }
  - { offset: 0x39D60, size: 0x8, addend: 0x0, symName: __ZNSt19istreambuf_iteratorIcSt11char_traitsIcEEppEv, symObjAddr: 0x3744, symBinAddr: 0x10000B628, symSize: 0x34 }
  - { offset: 0x39D88, size: 0x8, addend: 0x0, symName: __ZNKSt19istreambuf_iteratorIcSt11char_traitsIcEEdeEv, symObjAddr: 0x371C, symBinAddr: 0x10000B600, symSize: 0x28 }
  - { offset: 0x39DBD, size: 0x8, addend: 0x0, symName: __ZStneIcSt11char_traitsIcEEbRKSt19istreambuf_iteratorIT_T0_ES7_, symObjAddr: 0x36F0, symBinAddr: 0x10000B5D4, symSize: 0x2C }
  - { offset: 0x39E09, size: 0x8, addend: 0x0, symName: __ZNK9__gnu_cxx17__normal_iteratorIPKNSt7__cxx1112basic_stringIcSt11char_traitsIcESaIcEEESt6vectorIS6_SaIS6_EEE4baseEv, symObjAddr: 0x36DC, symBinAddr: 0x10000B5C0, symSize: 0x14 }
  - { offset: 0x39E56, size: 0x8, addend: 0x0, symName: __ZN9__gnu_cxx17__normal_iteratorIPKNSt7__cxx1112basic_stringIcSt11char_traitsIcESaIcEEESt6vectorIS6_SaIS6_EEEC1ERKS8_, symObjAddr: 0x36B4, symBinAddr: 0x10000B598, symSize: 0x28 }
  - { offset: 0x39E82, size: 0x8, addend: 0x0, symName: __ZNSt6vectorINSt7__cxx1112basic_stringIcSt11char_traitsIcESaIcEEESaIS5_EE4backEv, symObjAddr: 0x3654, symBinAddr: 0x10000B560, symSize: 0x38 }
  - { offset: 0x39EAA, size: 0x8, addend: 0x0, symName: __ZNSt6vectorINSt7__cxx1112basic_stringIcSt11char_traitsIcESaIcEEESaIS5_EE17_M_realloc_appendIJS5_EEEvDpOT_, symObjAddr: 0x3494, symBinAddr: 0x10000B3A0, symSize: 0x1C0 }
  - { offset: 0x3A024, size: 0x8, addend: 0x0, symName: __ZZNSt6vectorINSt7__cxx1112basic_stringIcSt11char_traitsIcESaIcEEESaIS5_EE17_M_realloc_appendIJS5_EEEvDpOT_EN6_GuardC1EPS5_mRS6_, symObjAddr: 0x33F0, symBinAddr: 0x10000B2FC, symSize: 0x44 }
  - { offset: 0x3A064, size: 0x8, addend: 0x0, symName: __ZZNSt6vectorINSt7__cxx1112basic_stringIcSt11char_traitsIcESaIcEEESaIS5_EE17_M_realloc_appendIJS5_EEEvDpOT_EN6_GuardD1Ev, symObjAddr: 0x3434, symBinAddr: 0x10000B340, symSize: 0x60 }
  - { offset: 0x3A1A0, size: 0x8, addend: 0x0, symName: __ZNKSt8__detail10_Hash_nodeISt4pairIKNSt7__cxx1112basic_stringIcSt11char_traitsIcESaIcEEEP5ValueELb1EE7_M_nextEv, symObjAddr: 0x33C4, symBinAddr: 0x10000B2E4, symSize: 0x18 }
  - { offset: 0x3A1ED, size: 0x8, addend: 0x0, symName: __ZNSt8__detail14_Node_iteratorISt4pairIKNSt7__cxx1112basic_stringIcSt11char_traitsIcESaIcEEEP5ValueELb0ELb1EEC1EPNS_10_Hash_nodeISB_Lb1EEE, symObjAddr: 0x339C, symBinAddr: 0x10000B2BC, symSize: 0x28 }
  - { offset: 0x3A219, size: 0x8, addend: 0x0, symName: __ZNKSt10_HashtableINSt7__cxx1112basic_stringIcSt11char_traitsIcESaIcEEESt4pairIKS5_P5ValueESaISA_ENSt8__detail10_Select1stESt8equal_toIS5_ESt4hashIS5_ENSC_18_Mod_range_hashingENSC_20_Default_ranged_hashENSC_20_Prime_rehash_policyENSC_17_Hashtable_traitsILb1ELb0ELb1EEEE8_M_beginEv, symObjAddr: 0x3384, symBinAddr: 0x10000B2A4, symSize: 0x18 }
  - { offset: 0x3A26F, size: 0x8, addend: 0x0, symName: __ZNKSt4lessIPSt16_Sp_counted_baseILN9__gnu_cxx12_Lock_policyE2EEEclES4_S4_, symObjAddr: 0x3330, symBinAddr: 0x10000B250, symSize: 0x54 }
  - { offset: 0x3A2D6, size: 0x8, addend: 0x0, symName: __ZSt3getILm1EJPNSt10filesystem7__cxx114path5_List5_ImplENS3_13_Impl_deleterEEERNSt13tuple_elementIXT_ESt5tupleIJDpT0_EEE4typeERSB_, symObjAddr: 0x3314, symBinAddr: 0x10000B234, symSize: 0x1C }
  - { offset: 0x3A320, size: 0x8, addend: 0x0, symName: __ZSt3getILm0EJPNSt10filesystem7__cxx114path5_List5_ImplENS3_13_Impl_deleterEEERNSt13tuple_elementIXT_ESt5tupleIJDpT0_EEE4typeERSB_, symObjAddr: 0x32F8, symBinAddr: 0x10000B218, symSize: 0x1C }
  - { offset: 0x3A3A7, size: 0x8, addend: 0x0, symName: __ZNSt12_Vector_baseIP3EnvSaIS1_EE17_Vector_impl_dataC2Ev, symObjAddr: 0x32CC, symBinAddr: 0x10000B1EC, symSize: 0x2C }
  - { offset: 0x3A3DF, size: 0x8, addend: 0x0, symName: __ZNSt7__cxx1112basic_stringIcSt11char_traitsIcESaIcEE12_M_constructISt19istreambuf_iteratorIcS2_EEEvT_S8_St18input_iterator_tag, symObjAddr: 0x2EF8, symBinAddr: 0x10000B030, symSize: 0x1BC }
  - { offset: 0x3A4ED, size: 0x8, addend: 0x0, symName: __ZZNSt7__cxx1112basic_stringIcSt11char_traitsIcESaIcEE12_M_constructISt19istreambuf_iteratorIcS2_EEEvT_S8_St18input_iterator_tagEN6_GuardC1EPS4_, symObjAddr: 0x2EA0, symBinAddr: 0x10000AFD8, symSize: 0x24 }
  - { offset: 0x3A51D, size: 0x8, addend: 0x0, symName: __ZZNSt7__cxx1112basic_stringIcSt11char_traitsIcESaIcEE12_M_constructISt19istreambuf_iteratorIcS2_EEEvT_S8_St18input_iterator_tagEN6_GuardD1Ev, symObjAddr: 0x2EC4, symBinAddr: 0x10000AFFC, symSize: 0x34 }
  - { offset: 0x3A5AF, size: 0x8, addend: 0x0, symName: __ZN9__gnu_cxxeqIPKNSt7__cxx1112basic_stringIcSt11char_traitsIcESaIcEEESt6vectorIS6_SaIS6_EEEEbRKNS_17__normal_iteratorIT_T0_EESH_, symObjAddr: 0x2E5C, symBinAddr: 0x10000AF94, symSize: 0x44 }
  - { offset: 0x3A5FF, size: 0x8, addend: 0x0, symName: __ZNKSt6vectorINSt7__cxx1112basic_stringIcSt11char_traitsIcESaIcEEESaIS5_EE3endEv, symObjAddr: 0x2E34, symBinAddr: 0x10000AF6C, symSize: 0x28 }
  - { offset: 0x3A627, size: 0x8, addend: 0x0, symName: __ZNKSt6vectorINSt7__cxx1112basic_stringIcSt11char_traitsIcESaIcEEESaIS5_EE5beginEv, symObjAddr: 0x2E10, symBinAddr: 0x10000AF48, symSize: 0x24 }
  - { offset: 0x3A64F, size: 0x8, addend: 0x0, symName: __ZNSt6vectorINSt7__cxx1112basic_stringIcSt11char_traitsIcESaIcEEESaIS5_EE12emplace_backIJS5_EEERS5_DpOT_, symObjAddr: 0x2D20, symBinAddr: 0x10000AE6C, symSize: 0xDC }
  - { offset: 0x3A6F3, size: 0x8, addend: 0x0, symName: __ZNSt16_Sp_counted_baseILN9__gnu_cxx12_Lock_policyE2EE15_M_add_ref_copyEv, symObjAddr: 0x2C88, symBinAddr: 0x10000ADD4, symSize: 0x98 }
  - { offset: 0x3A7EA, size: 0x8, addend: 0x0, symName: __ZNSt7__cxx1112basic_stringIcSt11char_traitsIcESaIcEEC1ISt17basic_string_viewIcS2_EvEERKT_RKS3_, symObjAddr: 0x2C34, symBinAddr: 0x10000AD80, symSize: 0x54 }
  - { offset: 0x3A824, size: 0x8, addend: 0x0, symName: __ZNSt10filesystem7__cxx118__detail17__effective_rangeIcSt11char_traitsIcESaIcEEESt17basic_string_viewIT_S3_IS7_EERKNSt7__cxx1112basic_stringIS7_T0_T1_EE, symObjAddr: 0x2C18, symBinAddr: 0x10000AD64, symSize: 0x1C }
  - { offset: 0x3A87E, size: 0x8, addend: 0x0, symName: __ZNSt8__detail19_Node_iterator_baseISt4pairIKNSt7__cxx1112basic_stringIcSt11char_traitsIcESaIcEEEP5ValueELb1EE7_M_incrEv, symObjAddr: 0x2BE8, symBinAddr: 0x10000AD34, symSize: 0x30 }
  - { offset: 0x3A8A6, size: 0x8, addend: 0x0, symName: __ZNSt10_HashtableINSt7__cxx1112basic_stringIcSt11char_traitsIcESaIcEEESt4pairIKS5_P5ValueESaISA_ENSt8__detail10_Select1stESt8equal_toIS5_ESt4hashIS5_ENSC_18_Mod_range_hashingENSC_20_Default_ranged_hashENSC_20_Prime_rehash_policyENSC_17_Hashtable_traitsILb1ELb0ELb1EEEE3endEv, symObjAddr: 0x2BC4, symBinAddr: 0x10000AD10, symSize: 0x24 }
  - { offset: 0x3A8CE, size: 0x8, addend: 0x0, symName: __ZNSt10_HashtableINSt7__cxx1112basic_stringIcSt11char_traitsIcESaIcEEESt4pairIKS5_P5ValueESaISA_ENSt8__detail10_Select1stESt8equal_toIS5_ESt4hashIS5_ENSC_18_Mod_range_hashingENSC_20_Default_ranged_hashENSC_20_Prime_rehash_policyENSC_17_Hashtable_traitsILb1ELb0ELb1EEEE5beginEv, symObjAddr: 0x2B98, symBinAddr: 0x10000ACE4, symSize: 0x2C }
  - { offset: 0x3A8F6, size: 0x8, addend: 0x0, symName: __ZNKSt14__shared_countILN9__gnu_cxx12_Lock_policyE2EE7_M_lessERKS2_, symObjAddr: 0x2AD0, symBinAddr: 0x10000ACB4, symSize: 0x30 }
  - { offset: 0x3A92F, size: 0x8, addend: 0x0, symName: __ZNSt15__uniq_ptr_implINSt10filesystem7__cxx114path5_List5_ImplENS3_13_Impl_deleterEE10_M_deleterEv, symObjAddr: 0x2AB4, symBinAddr: 0x10000AC98, symSize: 0x1C }
  - { offset: 0x3A95A, size: 0x8, addend: 0x0, symName: __ZSt4moveIRPNSt10filesystem7__cxx114path5_List5_ImplEEONSt16remove_referenceIT_E4typeEOS8_, symObjAddr: 0x2AA0, symBinAddr: 0x10000AC84, symSize: 0x14 }
  - { offset: 0x3A98E, size: 0x8, addend: 0x0, symName: __ZNSt10unique_ptrINSt10filesystem7__cxx114path5_List5_ImplENS3_13_Impl_deleterEE11get_deleterEv, symObjAddr: 0x2A84, symBinAddr: 0x10000AC68, symSize: 0x1C }
  - { offset: 0x3A9B6, size: 0x8, addend: 0x0, symName: __ZNSt15__uniq_ptr_implINSt10filesystem7__cxx114path5_List5_ImplENS3_13_Impl_deleterEE6_M_ptrEv, symObjAddr: 0x2A68, symBinAddr: 0x10000AC4C, symSize: 0x1C }
  - { offset: 0x3A9DE, size: 0x8, addend: 0x0, symName: __ZNSt16_Sp_counted_baseILN9__gnu_cxx12_Lock_policyE2EE19_M_release_last_useEv, symObjAddr: 0x2978, symBinAddr: 0x10000AB5C, symSize: 0xF0 }
  - { offset: 0x3AAE3, size: 0x8, addend: 0x0, symName: __ZNSt8__detail21_Hashtable_ebo_helperILi0ESaINS_10_Hash_nodeINSt7__cxx1112basic_stringIcSt11char_traitsIcESaIcEEELb1EEEELb1EEC2Ev, symObjAddr: 0x27B0, symBinAddr: 0x10000AB30, symSize: 0x2C }
  - { offset: 0x3AB63, size: 0x8, addend: 0x0, symName: __ZNSt8__detail21_Hashtable_ebo_helperILi0ESaINS_10_Hash_nodeISt4pairIKNSt7__cxx1112basic_stringIcSt11char_traitsIcESaIcEEEP5ValueELb1EEEELb1EEC2Ev, symObjAddr: 0x2784, symBinAddr: 0x10000AB04, symSize: 0x2C }
  - { offset: 0x3ABE3, size: 0x8, addend: 0x0, symName: __ZNSt8__detail21_Hashtable_ebo_helperILi0ESt8equal_toINSt7__cxx1112basic_stringIcSt11char_traitsIcESaIcEEEELb1EEC2Ev, symObjAddr: 0x2770, symBinAddr: 0x10000AAF0, symSize: 0x14 }
  - { offset: 0x3AC1F, size: 0x8, addend: 0x0, symName: __ZNSt8__detail21_Hashtable_ebo_helperILi1ESt4hashINSt7__cxx1112basic_stringIcSt11char_traitsIcESaIcEEEELb1EEC2Ev, symObjAddr: 0x275C, symBinAddr: 0x10000AADC, symSize: 0x14 }
  - { offset: 0x3AC5B, size: 0x8, addend: 0x0, symName: __ZNSt12_Vector_baseIP3EnvSaIS1_EE12_Vector_implC1Ev, symObjAddr: 0x2724, symBinAddr: 0x10000AAA4, symSize: 0x38 }
  - { offset: 0x3AD09, size: 0x8, addend: 0x0, symName: __ZNSt7__cxx1112basic_stringIcSt11char_traitsIcESaIcEEC1ISt19istreambuf_iteratorIcS2_EvEET_S8_RKS3_, symObjAddr: 0x25BC, symBinAddr: 0x10000AA28, symSize: 0x7C }
  - { offset: 0x3AD87, size: 0x8, addend: 0x0, symName: __ZNSt19istreambuf_iteratorIcSt11char_traitsIcEEC1Ev, symObjAddr: 0x258C, symBinAddr: 0x10000A9F8, symSize: 0x30 }
  - { offset: 0x3ADCF, size: 0x8, addend: 0x0, symName: __ZNSt19istreambuf_iteratorIcSt11char_traitsIcEEC1ERSi, symObjAddr: 0x2534, symBinAddr: 0x10000A9A0, symSize: 0x58 }
  - { offset: 0x3AE04, size: 0x8, addend: 0x0, symName: __ZSteqIcSt11char_traitsIcESaIcEEbRKNSt7__cxx1112basic_stringIT_T0_T1_EESA_, symObjAddr: 0x24B4, symBinAddr: 0x10000A920, symSize: 0x80 }
  - { offset: 0x3AE5D, size: 0x8, addend: 0x0, symName: __ZNKSt6vectorINSt7__cxx1112basic_stringIcSt11char_traitsIcESaIcEEESaIS5_EE5emptyEv, symObjAddr: 0x242C, symBinAddr: 0x10000A8E8, symSize: 0x38 }
  - { offset: 0x3AE85, size: 0x8, addend: 0x0, symName: __ZNSt6vectorINSt7__cxx1112basic_stringIcSt11char_traitsIcESaIcEEESaIS5_EE9push_backEOS5_, symObjAddr: 0x23A0, symBinAddr: 0x10000A8B8, symSize: 0x30 }
  - { offset: 0x3AEE3, size: 0x8, addend: 0x0, symName: __ZNSt14__shared_countILN9__gnu_cxx12_Lock_policyE2EEC1ERKS2_, symObjAddr: 0x2358, symBinAddr: 0x10000A870, symSize: 0x48 }
  - { offset: 0x3AF4B, size: 0x8, addend: 0x0, symName: __ZNSt10filesystem7__cxx114pathC1INSt7__cxx1112basic_stringIcSt11char_traitsIcESaIcEEES1_EERKT_NS1_6formatE, symObjAddr: 0x2290, symBinAddr: 0x10000A7A8, symSize: 0xC8 }
  - { offset: 0x3B012, size: 0x8, addend: 0x0, symName: __ZNSt10filesystem7__cxx114path10_S_convertISt17basic_string_viewIcSt11char_traitsIcEEEEDaT_, symObjAddr: 0x227C, symBinAddr: 0x10000A794, symSize: 0x14 }
  - { offset: 0x3B07F, size: 0x8, addend: 0x0, symName: __ZNSt4pairINSt7__cxx1112basic_stringIcSt11char_traitsIcESaIcEEEP5ValueEC1IKS5_S7_Lb1EEERKS_IT_T0_E, symObjAddr: 0x2244, symBinAddr: 0x10000A75C, symSize: 0x38 }
  - { offset: 0x3B0BD, size: 0x8, addend: 0x0, symName: __ZNKSt8__detail14_Node_iteratorISt4pairIKNSt7__cxx1112basic_stringIcSt11char_traitsIcESaIcEEEP5ValueELb0ELb1EEdeEv, symObjAddr: 0x2208, symBinAddr: 0x10000A720, symSize: 0x3C }
  - { offset: 0x3B12B, size: 0x8, addend: 0x0, symName: __ZNSt8__detail14_Node_iteratorISt4pairIKNSt7__cxx1112basic_stringIcSt11char_traitsIcESaIcEEEP5ValueELb0ELb1EEppEv, symObjAddr: 0x21E8, symBinAddr: 0x10000A700, symSize: 0x20 }
  - { offset: 0x3B156, size: 0x8, addend: 0x0, symName: __ZNSt8__detailneERKNS_19_Node_iterator_baseISt4pairIKNSt7__cxx1112basic_stringIcSt11char_traitsIcESaIcEEEP5ValueELb1EEESE_, symObjAddr: 0x21B8, symBinAddr: 0x10000A6D0, symSize: 0x30 }
  - { offset: 0x3B194, size: 0x8, addend: 0x0, symName: __ZNSt13unordered_mapINSt7__cxx1112basic_stringIcSt11char_traitsIcESaIcEEEP5ValueSt4hashIS5_ESt8equal_toIS5_ESaISt4pairIKS5_S7_EEE3endEv, symObjAddr: 0x219C, symBinAddr: 0x10000A6B4, symSize: 0x1C }
  - { offset: 0x3B1BC, size: 0x8, addend: 0x0, symName: __ZNSt13unordered_mapINSt7__cxx1112basic_stringIcSt11char_traitsIcESaIcEEEP5ValueSt4hashIS5_ESt8equal_toIS5_ESaISt4pairIKS5_S7_EEE5beginEv, symObjAddr: 0x2180, symBinAddr: 0x10000A698, symSize: 0x1C }
  - { offset: 0x3B1E4, size: 0x8, addend: 0x0, symName: __ZNSt6vectorIP15PropertyLiteralSaIS1_EEixEm, symObjAddr: 0x2158, symBinAddr: 0x10000A670, symSize: 0x28 }
  - { offset: 0x3B21D, size: 0x8, addend: 0x0, symName: __ZNKSt6vectorIP15PropertyLiteralSaIS1_EE4sizeEv, symObjAddr: 0x2130, symBinAddr: 0x10000A648, symSize: 0x28 }
  - { offset: 0x3B245, size: 0x8, addend: 0x0, symName: __ZNSt6vectorIP4StmtSaIS1_EEixEm, symObjAddr: 0x2108, symBinAddr: 0x10000A620, symSize: 0x28 }
  - { offset: 0x3B27E, size: 0x8, addend: 0x0, symName: __ZNKSt6vectorIP4StmtSaIS1_EE4sizeEv, symObjAddr: 0x20E0, symBinAddr: 0x10000A5F8, symSize: 0x28 }
  - { offset: 0x3B2A6, size: 0x8, addend: 0x0, symName: __ZNKSt12__shared_ptrINSt10filesystem7__cxx114_DirELN9__gnu_cxx12_Lock_policyE2EE12owner_beforeIS2_EEbRKS_IT_LS4_2EE, symObjAddr: 0x1FEC, symBinAddr: 0x10000A5C4, symSize: 0x34 }
  - { offset: 0x3B309, size: 0x8, addend: 0x0, symName: __ZNSt14__shared_countILN9__gnu_cxx12_Lock_policyE2EED1Ev, symObjAddr: 0x1FB8, symBinAddr: 0x10000A590, symSize: 0x34 }
  - { offset: 0x3B32D, size: 0x8, addend: 0x0, symName: __ZNKSt10filesystem7__cxx114path6stringIcSt11char_traitsIcESaIcEEENSt7__cxx1112basic_stringIT_T0_T1_EERKSA_, symObjAddr: 0x1F68, symBinAddr: 0x10000A540, symSize: 0x50 }
  - { offset: 0x3B3B2, size: 0x8, addend: 0x0, symName: __ZNSt10unique_ptrINSt10filesystem7__cxx114path5_List5_ImplENS3_13_Impl_deleterEED1Ev, symObjAddr: 0x1E3C, symBinAddr: 0x10000A4D8, symSize: 0x68 }
  - { offset: 0x3B403, size: 0x8, addend: 0x0, symName: __ZNSt16_Sp_counted_baseILN9__gnu_cxx12_Lock_policyE2EE24_M_release_last_use_coldEv, symObjAddr: 0x1E1C, symBinAddr: 0x10000A4B8, symSize: 0x20 }
  - { offset: 0x3B460, size: 0x8, addend: 0x0, symName: _main, symObjAddr: 0x172C, symBinAddr: 0x100009E4C, symSize: 0x66C }
  - { offset: 0x3B6FA, size: 0x8, addend: 0x0, symName: __ZN3EnvC1Ev, symObjAddr: 0x16E8, symBinAddr: 0x100009E08, symSize: 0x44 }
  - { offset: 0x3B736, size: 0x8, addend: 0x0, symName: __ZNSt13unordered_setINSt7__cxx1112basic_stringIcSt11char_traitsIcESaIcEEESt4hashIS5_ESt8equal_toIS5_ESaIS5_EEC1Ev, symObjAddr: 0x16C8, symBinAddr: 0x100009DE8, symSize: 0x20 }
  - { offset: 0x3B772, size: 0x8, addend: 0x0, symName: __ZNSt10_HashtableINSt7__cxx1112basic_stringIcSt11char_traitsIcESaIcEEES5_SaIS5_ENSt8__detail9_IdentityESt8equal_toIS5_ESt4hashIS5_ENS7_18_Mod_range_hashingENS7_20_Default_ranged_hashENS7_20_Prime_rehash_policyENS7_17_Hashtable_traitsILb1ELb1ELb1EEEEC1Ev, symObjAddr: 0x1658, symBinAddr: 0x100009D78, symSize: 0x70 }
  - { offset: 0x3B7AE, size: 0x8, addend: 0x0, symName: __ZNSt8__detail16_Hashtable_allocISaINS_10_Hash_nodeINSt7__cxx1112basic_stringIcSt11char_traitsIcESaIcEEELb1EEEEEC2Ev, symObjAddr: 0x1638, symBinAddr: 0x100009D58, symSize: 0x20 }
  - { offset: 0x3B7EA, size: 0x8, addend: 0x0, symName: __ZNSt8__detail15_Hashtable_baseINSt7__cxx1112basic_stringIcSt11char_traitsIcESaIcEEES6_NS_9_IdentityESt8equal_toIS6_ESt4hashIS6_ENS_18_Mod_range_hashingENS_20_Default_ranged_hashENS_17_Hashtable_traitsILb1ELb1ELb1EEEEC2Ev, symObjAddr: 0x1610, symBinAddr: 0x100009D30, symSize: 0x28 }
  - { offset: 0x3B826, size: 0x8, addend: 0x0, symName: __ZNSt8__detail15_Hash_code_baseINSt7__cxx1112basic_stringIcSt11char_traitsIcESaIcEEES6_NS_9_IdentityESt4hashIS6_ENS_18_Mod_range_hashingENS_20_Default_ranged_hashELb1EEC2Ev, symObjAddr: 0x15F0, symBinAddr: 0x100009D10, symSize: 0x20 }
  - { offset: 0x3B862, size: 0x8, addend: 0x0, symName: __ZNSt13unordered_mapINSt7__cxx1112basic_stringIcSt11char_traitsIcESaIcEEEP5ValueSt4hashIS5_ESt8equal_toIS5_ESaISt4pairIKS5_S7_EEEC1Ev, symObjAddr: 0x15D0, symBinAddr: 0x100009CF0, symSize: 0x20 }
  - { offset: 0x3B89E, size: 0x8, addend: 0x0, symName: __ZNSt10_HashtableINSt7__cxx1112basic_stringIcSt11char_traitsIcESaIcEEESt4pairIKS5_P5ValueESaISA_ENSt8__detail10_Select1stESt8equal_toIS5_ESt4hashIS5_ENSC_18_Mod_range_hashingENSC_20_Default_ranged_hashENSC_20_Prime_rehash_policyENSC_17_Hashtable_traitsILb1ELb0ELb1EEEEC1Ev, symObjAddr: 0x1560, symBinAddr: 0x100009C80, symSize: 0x70 }
  - { offset: 0x3B8DA, size: 0x8, addend: 0x0, symName: __ZNSt8__detail16_Hashtable_allocISaINS_10_Hash_nodeISt4pairIKNSt7__cxx1112basic_stringIcSt11char_traitsIcESaIcEEEP5ValueELb1EEEEEC2Ev, symObjAddr: 0x1540, symBinAddr: 0x100009C60, symSize: 0x20 }
  - { offset: 0x3B916, size: 0x8, addend: 0x0, symName: __ZNSt8__detail15_Hashtable_baseINSt7__cxx1112basic_stringIcSt11char_traitsIcESaIcEEESt4pairIKS6_P5ValueENS_10_Select1stESt8equal_toIS6_ESt4hashIS6_ENS_18_Mod_range_hashingENS_20_Default_ranged_hashENS_17_Hashtable_traitsILb1ELb0ELb1EEEEC2Ev, symObjAddr: 0x1518, symBinAddr: 0x100009C38, symSize: 0x28 }
  - { offset: 0x3B952, size: 0x8, addend: 0x0, symName: __ZNSt8__detail15_Hash_code_baseINSt7__cxx1112basic_stringIcSt11char_traitsIcESaIcEEESt4pairIKS6_P5ValueENS_10_Select1stESt4hashIS6_ENS_18_Mod_range_hashingENS_20_Default_ranged_hashELb1EEC2Ev, symObjAddr: 0x14F8, symBinAddr: 0x100009C18, symSize: 0x20 }
  - { offset: 0x3B98E, size: 0x8, addend: 0x0, symName: __ZNSt6vectorIP3EnvSaIS1_EEC1Ev, symObjAddr: 0x14D8, symBinAddr: 0x100009BF8, symSize: 0x20 }
  - { offset: 0x3B9CA, size: 0x8, addend: 0x0, symName: __ZNSt12_Vector_baseIP3EnvSaIS1_EEC2Ev, symObjAddr: 0x14B8, symBinAddr: 0x100009BD8, symSize: 0x20 }
  - { offset: 0x3BA13, size: 0x8, addend: 0x0, symName: __ZN5LexerD1Ev, symObjAddr: 0x1498, symBinAddr: 0x100009BB8, symSize: 0x20 }
  - { offset: 0x3BA5C, size: 0x8, addend: 0x0, symName: __ZNSt10filesystem7__cxx1118directory_iteratorC1ERKS1_, symObjAddr: 0x1470, symBinAddr: 0x100009B90, symSize: 0x28 }
  - { offset: 0x3BAA5, size: 0x8, addend: 0x0, symName: __ZNSt12__shared_ptrINSt10filesystem7__cxx114_DirELN9__gnu_cxx12_Lock_policyE2EEC1ERKS5_, symObjAddr: 0x1428, symBinAddr: 0x100009B48, symSize: 0x48 }
  - { offset: 0x3BAD5, size: 0x8, addend: 0x0, symName: __Z10print_evalP5Valuei, symObjAddr: 0x1048, symBinAddr: 0x100009768, symSize: 0x3E0 }
  - { offset: 0x3BCA8, size: 0x8, addend: 0x0, symName: __ZNSt4pairINSt7__cxx1112basic_stringIcSt11char_traitsIcESaIcEEEP5ValueED1Ev, symObjAddr: 0x1028, symBinAddr: 0x100009748, symSize: 0x20 }
  - { offset: 0x3BCD0, size: 0x8, addend: 0x0, symName: __Z10print_stmtP4Stmti, symObjAddr: 0x730, symBinAddr: 0x100008E50, symSize: 0x8F8 }
  - { offset: 0x3BF8B, size: 0x8, addend: 0x0, symName: __ZNSt8__detail20_Prime_rehash_policyC1Ef, symObjAddr: 0x660, symBinAddr: 0x100008E24, symSize: 0x2C }
  - { offset: 0x3BFCF, size: 0x8, addend: 0x0, symName: __ZNSt8__detail15_Hash_node_baseC1Ev, symObjAddr: 0x644, symBinAddr: 0x100008E08, symSize: 0x1C }
  - { offset: 0x3C017, size: 0x8, addend: 0x0, symName: __ZN6ParserC1EP5Token, symObjAddr: 0x610, symBinAddr: 0x100008DD4, symSize: 0x34 }
  - { offset: 0x3C040, size: 0x8, addend: 0x0, symName: __ZNSt10filesystem7__cxx113endENS0_18directory_iteratorE, symObjAddr: 0x5DC, symBinAddr: 0x100008DA0, symSize: 0x34 }
  - { offset: 0x3C07D, size: 0x8, addend: 0x0, symName: __ZNSt10filesystem7__cxx1118directory_iteratorC1Ev, symObjAddr: 0x5BC, symBinAddr: 0x100008D80, symSize: 0x20 }
  - { offset: 0x3C09E, size: 0x8, addend: 0x0, symName: __ZNSt10filesystem7__cxx115beginENS0_18directory_iteratorE, symObjAddr: 0x58C, symBinAddr: 0x100008D50, symSize: 0x30 }
  - { offset: 0x3C0F1, size: 0x8, addend: 0x0, symName: __ZNSt10filesystem7__cxx1118directory_iteratorC1EOS1_, symObjAddr: 0x564, symBinAddr: 0x100008D28, symSize: 0x28 }
  - { offset: 0x3C11A, size: 0x8, addend: 0x0, symName: __ZNSt10filesystem7__cxx11neERKNS0_18directory_iteratorES3_, symObjAddr: 0x538, symBinAddr: 0x100008CFC, symSize: 0x2C }
  - { offset: 0x3C155, size: 0x8, addend: 0x0, symName: __ZNSt10filesystem7__cxx11eqERKNS0_18directory_iteratorES3_, symObjAddr: 0x4D4, symBinAddr: 0x100008C98, symSize: 0x64 }
  - { offset: 0x3C1B8, size: 0x8, addend: 0x0, symName: __ZNSt10filesystem7__cxx1118directory_iteratorC1ERKNS0_4pathE, symObjAddr: 0x4A4, symBinAddr: 0x100008C68, symSize: 0x30 }
  - { offset: 0x3C205, size: 0x8, addend: 0x0, symName: __ZNSt10filesystem7__cxx1118directory_iteratorD1Ev, symObjAddr: 0x484, symBinAddr: 0x100008C48, symSize: 0x20 }
  - { offset: 0x3C24A, size: 0x8, addend: 0x0, symName: __ZNSt12__shared_ptrINSt10filesystem7__cxx114_DirELN9__gnu_cxx12_Lock_policyE2EED1Ev, symObjAddr: 0x460, symBinAddr: 0x100008C24, symSize: 0x24 }
  - { offset: 0x3C26E, size: 0x8, addend: 0x0, symName: __ZNKSt10filesystem7__cxx1115directory_entry4pathEv, symObjAddr: 0x44C, symBinAddr: 0x100008C10, symSize: 0x14 }
  - { offset: 0x3C29A, size: 0x8, addend: 0x0, symName: __ZNKSt10filesystem7__cxx114path6stringEv, symObjAddr: 0x3D8, symBinAddr: 0x100008B9C, symSize: 0x74 }
  - { offset: 0x3C367, size: 0x8, addend: 0x0, symName: __ZNSt10filesystem7__cxx114pathD1Ev, symObjAddr: 0x3AC, symBinAddr: 0x100008B70, symSize: 0x2C }
  - { offset: 0x3C3AC, size: 0x8, addend: 0x0, symName: __ZNSt10filesystem7__cxx114path5_ListD1Ev, symObjAddr: 0x38C, symBinAddr: 0x100008B50, symSize: 0x20 }
  - { offset: 0x3C3D0, size: 0x8, addend: 0x0, symName: __ZNSt16_Sp_counted_baseILN9__gnu_cxx12_Lock_policyE2EE10_M_releaseEv, symObjAddr: 0x218, symBinAddr: 0x1000089DC, symSize: 0x174 }
  - { offset: 0x3C608, size: 0x8, addend: 0x0, symName: __ZL18__gthread_active_pv, symObjAddr: 0x210, symBinAddr: 0x1000089D4, symSize: 0x8 }
  - { offset: 0x3C620, size: 0x8, addend: 0x0, symName: __ZNSt11char_traitsIcE3eofEv, symObjAddr: 0x208, symBinAddr: 0x1000089CC, symSize: 0x8 }
  - { offset: 0x3C638, size: 0x8, addend: 0x0, symName: __ZNSt11char_traitsIcE11eq_int_typeERKiS2_, symObjAddr: 0x1D8, symBinAddr: 0x10000899C, symSize: 0x30 }
  - { offset: 0x3C673, size: 0x8, addend: 0x0, symName: __ZNSt11char_traitsIcE12to_char_typeERKi, symObjAddr: 0x1BC, symBinAddr: 0x100008980, symSize: 0x1C }
  - { offset: 0x3C69D, size: 0x8, addend: 0x0, symName: __ZNSt11char_traitsIcE7compareEPKcS2_m, symObjAddr: 0x90, symBinAddr: 0x100008890, symSize: 0xF0 }
  - { offset: 0x3C727, size: 0x8, addend: 0x0, symName: __ZNSt11char_traitsIcE2ltERKcS2_, symObjAddr: 0x58, symBinAddr: 0x100008858, symSize: 0x38 }
  - { offset: 0x3C762, size: 0x8, addend: 0x0, symName: __ZNSt11char_traitsIcE6assignERcRKc, symObjAddr: 0x30, symBinAddr: 0x100008830, symSize: 0x28 }
  - { offset: 0x40338, size: 0x8, addend: 0x0, symName: __ZStL8__ioinit, symObjAddr: 0x15BCA, symBinAddr: 0x100028050, symSize: 0x0 }
  - { offset: 0x40481, size: 0x8, addend: 0x0, symName: __ZN7command4helpEv, symObjAddr: 0x0, symBinAddr: 0x10000BA10, symSize: 0x28 }
  - { offset: 0x450C0, size: 0x8, addend: 0x0, symName: __ZStL8__ioinit, symObjAddr: 0x1D81D, symBinAddr: 0x100028051, symSize: 0x0 }
  - { offset: 0x45639, size: 0x8, addend: 0x0, symName: __ZN7ProgramD0Ev, symObjAddr: 0x9A4, symBinAddr: 0x10000C42C, symSize: 0x28 }
  - { offset: 0x45661, size: 0x8, addend: 0x0, symName: __ZN7ProgramD1Ev, symObjAddr: 0x964, symBinAddr: 0x10000C3EC, symSize: 0x40 }
  - { offset: 0x456AA, size: 0x8, addend: 0x0, symName: __ZN14NumericLiteralD0Ev, symObjAddr: 0x93C, symBinAddr: 0x10000C3C4, symSize: 0x28 }
  - { offset: 0x456D2, size: 0x8, addend: 0x0, symName: __ZN14NumericLiteralD1Ev, symObjAddr: 0x908, symBinAddr: 0x10000C390, symSize: 0x34 }
  - { offset: 0x456F3, size: 0x8, addend: 0x0, symName: __ZNSt12_Destroy_auxILb1EE9__destroyIPP4StmtEEvT_S5_, symObjAddr: 0x8F0, symBinAddr: 0x10000C378, symSize: 0x18 }
  - { offset: 0x45728, size: 0x8, addend: 0x0, symName: __ZNSt15__new_allocatorIP4StmtE10deallocateEPS1_m, symObjAddr: 0x8C0, symBinAddr: 0x10000C348, symSize: 0x30 }
  - { offset: 0x4576B, size: 0x8, addend: 0x0, symName: __ZSt8_DestroyIPP4StmtEvT_S3_, symObjAddr: 0x898, symBinAddr: 0x10000C320, symSize: 0x28 }
  - { offset: 0x45828, size: 0x8, addend: 0x0, symName: __ZNSt12_Vector_baseIP4StmtSaIS1_EE19_M_get_Tp_allocatorEv, symObjAddr: 0x884, symBinAddr: 0x10000C30C, symSize: 0x14 }
  - { offset: 0x45850, size: 0x8, addend: 0x0, symName: __ZNSt12_Vector_baseIP4StmtSaIS1_EE13_M_deallocateEPS1_m, symObjAddr: 0x82C, symBinAddr: 0x10000C2B4, symSize: 0x58 }
  - { offset: 0x458EE, size: 0x8, addend: 0x0, symName: __ZNSt15__new_allocatorIP4StmtED2Ev, symObjAddr: 0x818, symBinAddr: 0x10000C2A0, symSize: 0x14 }
  - { offset: 0x4592A, size: 0x8, addend: 0x0, symName: __ZNSt12_Vector_baseIP4StmtSaIS1_EE17_Vector_impl_dataC2Ev, symObjAddr: 0x7EC, symBinAddr: 0x10000C274, symSize: 0x2C }
  - { offset: 0x45983, size: 0x8, addend: 0x0, symName: __ZNSt6vectorIP4StmtSaIS1_EED1Ev, symObjAddr: 0x790, symBinAddr: 0x10000C218, symSize: 0x5C }
  - { offset: 0x459FB, size: 0x8, addend: 0x0, symName: __ZNSt12_Vector_baseIP4StmtSaIS1_EED2Ev, symObjAddr: 0x740, symBinAddr: 0x10000C1C8, symSize: 0x50 }
  - { offset: 0x45A54, size: 0x8, addend: 0x0, symName: __ZNSt12_Vector_baseIP4StmtSaIS1_EE12_Vector_implC1Ev, symObjAddr: 0x708, symBinAddr: 0x10000C190, symSize: 0x38 }
  - { offset: 0x45AD3, size: 0x8, addend: 0x0, symName: __ZN9__gnu_cxx6__stoaIeecJEEET0_PFT_PKT1_PPS3_DpT2_EPKcS5_PmS9_, symObjAddr: 0x5FC, symBinAddr: 0x10000C084, symSize: 0x10C }
  - { offset: 0x45BFB, size: 0x8, addend: 0x0, symName: __ZZN9__gnu_cxx6__stoaIeecJEEET0_PFT_PKT1_PPS3_DpT2_EPKcS5_PmS9_EN11_Save_errnoC1Ev, symObjAddr: 0x564, symBinAddr: 0x10000BFEC, symSize: 0x30 }
  - { offset: 0x45C23, size: 0x8, addend: 0x0, symName: __ZZN9__gnu_cxx6__stoaIeecJEEET0_PFT_PKT1_PPS3_DpT2_EPKcS5_PmS9_EN11_Save_errnoD1Ev, symObjAddr: 0x594, symBinAddr: 0x10000C01C, symSize: 0x50 }
  - { offset: 0x45C69, size: 0x8, addend: 0x0, symName: __ZZN9__gnu_cxx6__stoaIeecJEEET0_PFT_PKT1_PPS3_DpT2_EPKcS5_PmS9_EN10_Range_chk6_S_chkEeSt17integral_constantIbLb0EE, symObjAddr: 0x5E4, symBinAddr: 0x10000C06C, symSize: 0x18 }
  - { offset: 0x45CDA, size: 0x8, addend: 0x0, symName: __ZN7ProgramC1Ev, symObjAddr: 0x50C, symBinAddr: 0x10000BF94, symSize: 0x58 }
  - { offset: 0x45D02, size: 0x8, addend: 0x0, symName: __ZN7ProgramC2Ev, symObjAddr: 0x4B4, symBinAddr: 0x10000BF3C, symSize: 0x58 }
  - { offset: 0x45D3E, size: 0x8, addend: 0x0, symName: __ZNSt6vectorIP4StmtSaIS1_EEC1Ev, symObjAddr: 0x494, symBinAddr: 0x10000BF1C, symSize: 0x20 }
  - { offset: 0x45D7A, size: 0x8, addend: 0x0, symName: __ZNSt12_Vector_baseIP4StmtSaIS1_EEC2Ev, symObjAddr: 0x474, symBinAddr: 0x10000BEFC, symSize: 0x20 }
  - { offset: 0x45DC3, size: 0x8, addend: 0x0, symName: __ZNSt12_Vector_baseIP4StmtSaIS1_EE12_Vector_implD1Ev, symObjAddr: 0x448, symBinAddr: 0x10000BED0, symSize: 0x2C }
  - { offset: 0x45E40, size: 0x8, addend: 0x0, symName: __ZN14NumericLiteralC1ENSt7__cxx1112basic_stringIcSt11char_traitsIcESaIcEEE, symObjAddr: 0x320, symBinAddr: 0x10000BDA8, symSize: 0x128 }
  - { offset: 0x45E92, size: 0x8, addend: 0x0, symName: __ZN14NumericLiteralC2ENSt7__cxx1112basic_stringIcSt11char_traitsIcESaIcEEE, symObjAddr: 0x1F8, symBinAddr: 0x10000BC80, symSize: 0x128 }
  - { offset: 0x45EE0, size: 0x8, addend: 0x0, symName: __ZNK14NumericLiteral7getKindEv, symObjAddr: 0x1E0, symBinAddr: 0x10000BC68, symSize: 0x18 }
  - { offset: 0x45F2D, size: 0x8, addend: 0x0, symName: __ZN4ExprD0Ev, symObjAddr: 0x1B8, symBinAddr: 0x10000BC40, symSize: 0x28 }
  - { offset: 0x45F55, size: 0x8, addend: 0x0, symName: __ZN4ExprD1Ev, symObjAddr: 0x184, symBinAddr: 0x10000BC0C, symSize: 0x34 }
  - { offset: 0x45F7D, size: 0x8, addend: 0x0, symName: __ZN4ExprD2Ev, symObjAddr: 0x150, symBinAddr: 0x10000BBD8, symSize: 0x34 }
  - { offset: 0x45FBD, size: 0x8, addend: 0x0, symName: __ZN4ExprC2Ev, symObjAddr: 0x11C, symBinAddr: 0x10000BBA4, symSize: 0x34 }
  - { offset: 0x46002, size: 0x8, addend: 0x0, symName: __ZN4StmtD0Ev, symObjAddr: 0xF4, symBinAddr: 0x10000BB7C, symSize: 0x28 }
  - { offset: 0x4602A, size: 0x8, addend: 0x0, symName: __ZN4StmtD1Ev, symObjAddr: 0xCC, symBinAddr: 0x10000BB54, symSize: 0x28 }
  - { offset: 0x46052, size: 0x8, addend: 0x0, symName: __ZN4StmtD2Ev, symObjAddr: 0xA4, symBinAddr: 0x10000BB2C, symSize: 0x28 }
  - { offset: 0x46092, size: 0x8, addend: 0x0, symName: __ZN4StmtC2Ev, symObjAddr: 0x74, symBinAddr: 0x10000BAFC, symSize: 0x30 }
  - { offset: 0x460B6, size: 0x8, addend: 0x0, symName: __ZNK7Program7getKindEv, symObjAddr: 0x5C, symBinAddr: 0x10000BAE4, symSize: 0x18 }
  - { offset: 0x460DE, size: 0x8, addend: 0x0, symName: __ZNK4Stmt7getKindEv, symObjAddr: 0x44, symBinAddr: 0x10000BACC, symSize: 0x18 }
  - { offset: 0x46103, size: 0x8, addend: 0x0, symName: __ZNSt7__cxx115stoldERKNS_12basic_stringIcSt11char_traitsIcESaIcEEEPm, symObjAddr: 0x0, symBinAddr: 0x10000BA88, symSize: 0x44 }
  - { offset: 0x4D0AA, size: 0x8, addend: 0x0, symName: __ZStL8__ioinit, symObjAddr: 0x37496, symBinAddr: 0x100028052, symSize: 0x0 }
  - { offset: 0x4DC65, size: 0x8, addend: 0x0, symName: __ZN14VarDeclarationD0Ev, symObjAddr: 0x3E24, symBinAddr: 0x10000FBE4, symSize: 0x28 }
  - { offset: 0x4DC8D, size: 0x8, addend: 0x0, symName: __ZN14VarDeclarationD1Ev, symObjAddr: 0x3DE4, symBinAddr: 0x10000FBA4, symSize: 0x40 }
  - { offset: 0x4DCD6, size: 0x8, addend: 0x0, symName: __ZN10AssignExprD0Ev, symObjAddr: 0x3DBC, symBinAddr: 0x10000FB7C, symSize: 0x28 }
  - { offset: 0x4DCFE, size: 0x8, addend: 0x0, symName: __ZN10AssignExprD1Ev, symObjAddr: 0x3D88, symBinAddr: 0x10000FB48, symSize: 0x34 }
  - { offset: 0x4DD47, size: 0x8, addend: 0x0, symName: __ZN10BinaryExprD0Ev, symObjAddr: 0x3D60, symBinAddr: 0x10000FB20, symSize: 0x28 }
  - { offset: 0x4DD6F, size: 0x8, addend: 0x0, symName: __ZN10BinaryExprD1Ev, symObjAddr: 0x3D20, symBinAddr: 0x10000FAE0, symSize: 0x40 }
  - { offset: 0x4DDB8, size: 0x8, addend: 0x0, symName: __ZN10IdentifierD0Ev, symObjAddr: 0x3CF8, symBinAddr: 0x10000FAB8, symSize: 0x28 }
  - { offset: 0x4DDE0, size: 0x8, addend: 0x0, symName: __ZN10IdentifierD1Ev, symObjAddr: 0x3CB8, symBinAddr: 0x10000FA78, symSize: 0x40 }
  - { offset: 0x4DE29, size: 0x8, addend: 0x0, symName: __ZN15PropertyLiteralD0Ev, symObjAddr: 0x3C90, symBinAddr: 0x10000FA50, symSize: 0x28 }
  - { offset: 0x4DE51, size: 0x8, addend: 0x0, symName: __ZN15PropertyLiteralD1Ev, symObjAddr: 0x3C50, symBinAddr: 0x10000FA10, symSize: 0x40 }
  - { offset: 0x4DE9A, size: 0x8, addend: 0x0, symName: __ZN13ObjectLiteralD0Ev, symObjAddr: 0x3C28, symBinAddr: 0x10000F9E8, symSize: 0x28 }
  - { offset: 0x4DEC2, size: 0x8, addend: 0x0, symName: __ZN13ObjectLiteralD1Ev, symObjAddr: 0x3BE8, symBinAddr: 0x10000F9A8, symSize: 0x40 }
  - { offset: 0x4DF0B, size: 0x8, addend: 0x0, symName: __ZNSt11__copy_moveILb0ELb0ESt26random_access_iterator_tagE12__assign_oneIP15PropertyLiteralS4_EEvPT_PT0_, symObjAddr: 0x3BC0, symBinAddr: 0x10000F980, symSize: 0x28 }
  - { offset: 0x4DF58, size: 0x8, addend: 0x0, symName: __ZNSt11__copy_moveILb0ELb0ESt26random_access_iterator_tagE12__assign_oneIP15PropertyLiteralKS4_EEvPT_PT0_, symObjAddr: 0x3B98, symBinAddr: 0x10000F958, symSize: 0x28 }
  - { offset: 0x4DFA5, size: 0x8, addend: 0x0, symName: __ZSt13__copy_move_aILb0EN9__gnu_cxx17__normal_iteratorIPKP15PropertyLiteralSt6vectorIS3_SaIS3_EEEEPS3_ET1_T0_SC_SB_, symObjAddr: 0x3B38, symBinAddr: 0x10000F8F8, symSize: 0x60 }
  - { offset: 0x4E021, size: 0x8, addend: 0x0, symName: __ZSt14__relocate_a_1IP4StmtS1_ENSt9enable_ifIXsrSt24__is_bitwise_relocatableIT_vE5valueEPS4_E4typeES6_S6_S6_RSaIT0_E, symObjAddr: 0x3AD4, symBinAddr: 0x10000F894, symSize: 0x64 }
  - { offset: 0x4E0A1, size: 0x8, addend: 0x0, symName: __ZSt12__niter_baseIPP4StmtET_S3_, symObjAddr: 0x3AC0, symBinAddr: 0x10000F880, symSize: 0x14 }
  - { offset: 0x4E0D7, size: 0x8, addend: 0x0, symName: __ZNSt15__new_allocatorIP4StmtE8allocateEmPKv, symObjAddr: 0x3A44, symBinAddr: 0x10000F804, symSize: 0x7C }
  - { offset: 0x4E159, size: 0x8, addend: 0x0, symName: __ZNKSt12_Vector_baseIP4StmtSaIS1_EE19_M_get_Tp_allocatorEv, symObjAddr: 0x3A30, symBinAddr: 0x10000F7F0, symSize: 0x14 }
  - { offset: 0x4E17E, size: 0x8, addend: 0x0, symName: __ZNSt6vectorIP4StmtSaIS1_EE11_S_max_sizeERKS2_, symObjAddr: 0x39DC, symBinAddr: 0x10000F79C, symSize: 0x54 }
  - { offset: 0x4E231, size: 0x8, addend: 0x0, symName: __ZNSt11__copy_moveILb0ELb1ESt26random_access_iterator_tagE8__copy_mIP15PropertyLiteralS4_EEPT0_PT_S8_S6_, symObjAddr: 0x394C, symBinAddr: 0x10000F70C, symSize: 0x90 }
  - { offset: 0x4E2A0, size: 0x8, addend: 0x0, symName: __ZNSt11__copy_moveILb0ELb1ESt26random_access_iterator_tagE8__copy_mIKP15PropertyLiteralS4_EEPT0_PT_S9_S7_, symObjAddr: 0x38BC, symBinAddr: 0x10000F67C, symSize: 0x90 }
  - { offset: 0x4E30F, size: 0x8, addend: 0x0, symName: __ZSt4copyIN9__gnu_cxx17__normal_iteratorIPKP15PropertyLiteralSt6vectorIS3_SaIS3_EEEEPS3_ET0_T_SC_SB_, symObjAddr: 0x3874, symBinAddr: 0x10000F634, symSize: 0x48 }
  - { offset: 0x4E381, size: 0x8, addend: 0x0, symName: __ZSt12__relocate_aIPP4StmtS2_SaIS1_EET0_T_S5_S4_RT1_, symObjAddr: 0x37E0, symBinAddr: 0x10000F5D8, symSize: 0x5C }
  - { offset: 0x4E41D, size: 0x8, addend: 0x0, symName: __ZNK9__gnu_cxx17__normal_iteratorIPP4StmtSt6vectorIS2_SaIS2_EEE4baseEv, symObjAddr: 0x379C, symBinAddr: 0x10000F5C4, symSize: 0x14 }
  - { offset: 0x4E46A, size: 0x8, addend: 0x0, symName: __ZN9__gnu_cxx17__normal_iteratorIPP4StmtSt6vectorIS2_SaIS2_EEEC1ERKS3_, symObjAddr: 0x3774, symBinAddr: 0x10000F59C, symSize: 0x28 }
  - { offset: 0x4E496, size: 0x8, addend: 0x0, symName: __ZNKSt6vectorIP4StmtSaIS1_EE8max_sizeEv, symObjAddr: 0x372C, symBinAddr: 0x10000F57C, symSize: 0x20 }
  - { offset: 0x4E4BB, size: 0x8, addend: 0x0, symName: __ZSt14__copy_move_a2ILb0EPP15PropertyLiteralS2_ET1_T0_S4_S3_, symObjAddr: 0x3700, symBinAddr: 0x10000F550, symSize: 0x2C }
  - { offset: 0x4E526, size: 0x8, addend: 0x0, symName: __ZNK9__gnu_cxx17__normal_iteratorIPP15PropertyLiteralSt6vectorIS2_SaIS2_EEEplEl, symObjAddr: 0x36C0, symBinAddr: 0x10000F510, symSize: 0x40 }
  - { offset: 0x4E55C, size: 0x8, addend: 0x0, symName: __ZSt14__copy_move_a2ILb0EPKP15PropertyLiteralPS1_ET1_T0_S6_S5_, symObjAddr: 0x3694, symBinAddr: 0x10000F4E4, symSize: 0x2C }
  - { offset: 0x4E5C7, size: 0x8, addend: 0x0, symName: __ZNK9__gnu_cxx17__normal_iteratorIPKP15PropertyLiteralSt6vectorIS2_SaIS2_EEE4baseEv, symObjAddr: 0x3680, symBinAddr: 0x10000F4D0, symSize: 0x14 }
  - { offset: 0x4E5EC, size: 0x8, addend: 0x0, symName: __ZNSt20__uninitialized_copyILb1EE13__uninit_copyIN9__gnu_cxx17__normal_iteratorIPKP15PropertyLiteralSt6vectorIS5_SaIS5_EEEEPS5_EET0_T_SE_SD_, symObjAddr: 0x3654, symBinAddr: 0x10000F4A4, symSize: 0x2C }
  - { offset: 0x4E644, size: 0x8, addend: 0x0, symName: __ZSt14__relocate_a_1IP15PropertyLiteralS1_ENSt9enable_ifIXsrSt24__is_bitwise_relocatableIT_vE5valueEPS4_E4typeES6_S6_S6_RSaIT0_E, symObjAddr: 0x35F0, symBinAddr: 0x10000F440, symSize: 0x64 }
  - { offset: 0x4E6C7, size: 0x8, addend: 0x0, symName: __ZNSt15__new_allocatorIP15PropertyLiteralE8allocateEmPKv, symObjAddr: 0x3574, symBinAddr: 0x10000F3C4, symSize: 0x7C }
  - { offset: 0x4E746, size: 0x8, addend: 0x0, symName: __ZNSt6vectorIP15PropertyLiteralSaIS1_EE11_S_max_sizeERKS2_, symObjAddr: 0x3520, symBinAddr: 0x10000F370, symSize: 0x54 }
  - { offset: 0x4E7FC, size: 0x8, addend: 0x0, symName: __ZNK9__gnu_cxx17__normal_iteratorIPP4StmtSt6vectorIS2_SaIS2_EEEdeEv, symObjAddr: 0x3508, symBinAddr: 0x10000F358, symSize: 0x18 }
  - { offset: 0x4E824, size: 0x8, addend: 0x0, symName: __ZNK9__gnu_cxx17__normal_iteratorIPP4StmtSt6vectorIS2_SaIS2_EEEmiEl, symObjAddr: 0x34C4, symBinAddr: 0x10000F314, symSize: 0x44 }
  - { offset: 0x4E85A, size: 0x8, addend: 0x0, symName: __ZNSt6vectorIP4StmtSaIS1_EE11_S_relocateEPS1_S4_S4_RS2_, symObjAddr: 0x347C, symBinAddr: 0x10000F2E0, symSize: 0x34 }
  - { offset: 0x4E8B7, size: 0x8, addend: 0x0, symName: __ZSt12__to_addressIP4StmtEPT_S3_, symObjAddr: 0x3468, symBinAddr: 0x10000F2CC, symSize: 0x14 }
  - { offset: 0x4E919, size: 0x8, addend: 0x0, symName: __ZNSt12_Vector_baseIP4StmtSaIS1_EE11_M_allocateEm, symObjAddr: 0x3418, symBinAddr: 0x10000F27C, symSize: 0x50 }
  - { offset: 0x4E980, size: 0x8, addend: 0x0, symName: __ZN9__gnu_cxxmiIPP4StmtSt6vectorIS2_SaIS2_EEEENS_17__normal_iteratorIT_T0_E15difference_typeERKSA_SD_, symObjAddr: 0x33D8, symBinAddr: 0x10000F23C, symSize: 0x40 }
  - { offset: 0x4E9D0, size: 0x8, addend: 0x0, symName: __ZNSt6vectorIP4StmtSaIS1_EE5beginEv, symObjAddr: 0x33B4, symBinAddr: 0x10000F218, symSize: 0x24 }
  - { offset: 0x4E9F8, size: 0x8, addend: 0x0, symName: __ZNSt6vectorIP4StmtSaIS1_EE3endEv, symObjAddr: 0x338C, symBinAddr: 0x10000F1F0, symSize: 0x28 }
  - { offset: 0x4EA20, size: 0x8, addend: 0x0, symName: __ZNKSt6vectorIP4StmtSaIS1_EE12_M_check_lenEmPKc, symObjAddr: 0x32BC, symBinAddr: 0x10000F120, symSize: 0xD0 }
  - { offset: 0x4EAB6, size: 0x8, addend: 0x0, symName: __ZNSt20__uninitialized_copyILb1EE13__uninit_copyIPP15PropertyLiteralS4_EET0_T_S6_S5_, symObjAddr: 0x3290, symBinAddr: 0x10000F0F4, symSize: 0x2C }
  - { offset: 0x4EB0E, size: 0x8, addend: 0x0, symName: __ZSt12__niter_wrapIPP15PropertyLiteralET_RKS3_S3_, symObjAddr: 0x3278, symBinAddr: 0x10000F0DC, symSize: 0x18 }
  - { offset: 0x4EB49, size: 0x8, addend: 0x0, symName: __ZSt14__copy_move_a1ILb0EPP15PropertyLiteralS2_ET1_T0_S4_S3_, symObjAddr: 0x324C, symBinAddr: 0x10000F0B0, symSize: 0x2C }
  - { offset: 0x4EBB1, size: 0x8, addend: 0x0, symName: __ZSt12__niter_baseIPP15PropertyLiteralET_S3_, symObjAddr: 0x3238, symBinAddr: 0x10000F09C, symSize: 0x14 }
  - { offset: 0x4EBE4, size: 0x8, addend: 0x0, symName: __ZNSt12_Destroy_auxILb1EE9__destroyIN9__gnu_cxx17__normal_iteratorIPP15PropertyLiteralSt6vectorIS5_SaIS5_EEEEEEvT_SB_, symObjAddr: 0x3220, symBinAddr: 0x10000F084, symSize: 0x18 }
  - { offset: 0x4EC16, size: 0x8, addend: 0x0, symName: __ZSt12__niter_wrapIN9__gnu_cxx17__normal_iteratorIPP15PropertyLiteralSt6vectorIS3_SaIS3_EEEES4_ET_S9_T0_, symObjAddr: 0x31D8, symBinAddr: 0x10000F03C, symSize: 0x48 }
  - { offset: 0x4EC63, size: 0x8, addend: 0x0, symName: __ZSt14__copy_move_a1ILb0EPKP15PropertyLiteralPS1_ET1_T0_S6_S5_, symObjAddr: 0x31AC, symBinAddr: 0x10000F010, symSize: 0x2C }
  - { offset: 0x4ECCB, size: 0x8, addend: 0x0, symName: __ZSt12__niter_baseIPP15PropertyLiteralSt6vectorIS1_SaIS1_EEET_N9__gnu_cxx17__normal_iteratorIS6_T0_EE, symObjAddr: 0x318C, symBinAddr: 0x10000EFF0, symSize: 0x20 }
  - { offset: 0x4ED07, size: 0x8, addend: 0x0, symName: __ZSt12__niter_baseIPKP15PropertyLiteralSt6vectorIS1_SaIS1_EEET_N9__gnu_cxx17__normal_iteratorIS7_T0_EE, symObjAddr: 0x316C, symBinAddr: 0x10000EFD0, symSize: 0x20 }
  - { offset: 0x4ED43, size: 0x8, addend: 0x0, symName: __ZSt18uninitialized_copyIN9__gnu_cxx17__normal_iteratorIPKP15PropertyLiteralSt6vectorIS3_SaIS3_EEEEPS3_ET0_T_SC_SB_, symObjAddr: 0x3130, symBinAddr: 0x10000EF94, symSize: 0x3C }
  - { offset: 0x4EDBB, size: 0x8, addend: 0x0, symName: __ZSt12__relocate_aIPP15PropertyLiteralS2_SaIS1_EET0_T_S5_S4_RT1_, symObjAddr: 0x30D4, symBinAddr: 0x10000EF38, symSize: 0x5C }
  - { offset: 0x4EE57, size: 0x8, addend: 0x0, symName: __ZNK9__gnu_cxx17__normal_iteratorIPP15PropertyLiteralSt6vectorIS2_SaIS2_EEE4baseEv, symObjAddr: 0x30C0, symBinAddr: 0x10000EF24, symSize: 0x14 }
  - { offset: 0x4EE7F, size: 0x8, addend: 0x0, symName: __ZNKSt6vectorIP15PropertyLiteralSaIS1_EE8max_sizeEv, symObjAddr: 0x3068, symBinAddr: 0x10000EF04, symSize: 0x20 }
  - { offset: 0x4EEA4, size: 0x8, addend: 0x0, symName: __ZNSt12_Destroy_auxILb1EE9__destroyIPP15PropertyLiteralEEvT_S5_, symObjAddr: 0x3050, symBinAddr: 0x10000EEEC, symSize: 0x18 }
  - { offset: 0x4EED9, size: 0x8, addend: 0x0, symName: __ZNSt15__new_allocatorIP15PropertyLiteralE10deallocateEPS1_m, symObjAddr: 0x3020, symBinAddr: 0x10000EEBC, symSize: 0x30 }
  - { offset: 0x4EF1F, size: 0x8, addend: 0x0, symName: __ZNSt6vectorIP4StmtSaIS1_EE4backEv, symObjAddr: 0x2FE8, symBinAddr: 0x10000EE84, symSize: 0x38 }
  - { offset: 0x4EF47, size: 0x8, addend: 0x0, symName: __ZNSt6vectorIP4StmtSaIS1_EE17_M_realloc_appendIJS1_EEEvDpOT_, symObjAddr: 0x2E2C, symBinAddr: 0x10000ECC8, symSize: 0x1BC }
  - { offset: 0x4F0C1, size: 0x8, addend: 0x0, symName: __ZZNSt6vectorIP4StmtSaIS1_EE17_M_realloc_appendIJS1_EEEvDpOT_EN6_GuardC1EPS1_mRS2_, symObjAddr: 0x2D88, symBinAddr: 0x10000EC24, symSize: 0x44 }
  - { offset: 0x4F101, size: 0x8, addend: 0x0, symName: __ZZNSt6vectorIP4StmtSaIS1_EE17_M_realloc_appendIJS1_EEEvDpOT_EN6_GuardD1Ev, symObjAddr: 0x2DCC, symBinAddr: 0x10000EC68, symSize: 0x60 }
  - { offset: 0x4F22C, size: 0x8, addend: 0x0, symName: __ZSt7forwardIP4StmtEOT_RNSt16remove_referenceIS2_E4typeE, symObjAddr: 0x2D74, symBinAddr: 0x10000EC10, symSize: 0x14 }
  - { offset: 0x4F25D, size: 0x8, addend: 0x0, symName: __ZSt18uninitialized_copyIPP15PropertyLiteralS2_ET0_T_S4_S3_, symObjAddr: 0x2D38, symBinAddr: 0x10000EBD4, symSize: 0x3C }
  - { offset: 0x4F2D5, size: 0x8, addend: 0x0, symName: __ZSt13__copy_move_aILb0EPP15PropertyLiteralS2_ET1_T0_S4_S3_, symObjAddr: 0x2CD8, symBinAddr: 0x10000EB74, symSize: 0x60 }
  - { offset: 0x4F33D, size: 0x8, addend: 0x0, symName: __ZSt12__miter_baseIPP15PropertyLiteralET_S3_, symObjAddr: 0x2CC4, symBinAddr: 0x10000EB60, symSize: 0x14 }
  - { offset: 0x4F370, size: 0x8, addend: 0x0, symName: __ZSt8_DestroyIN9__gnu_cxx17__normal_iteratorIPP15PropertyLiteralSt6vectorIS3_SaIS3_EEEEEvT_S9_, symObjAddr: 0x2C9C, symBinAddr: 0x10000EB38, symSize: 0x28 }
  - { offset: 0x4F3B0, size: 0x8, addend: 0x0, symName: __ZSt13__copy_move_aILb0EN9__gnu_cxx17__normal_iteratorIPKP15PropertyLiteralSt6vectorIS3_SaIS3_EEEENS1_IPS3_S8_EEET1_T0_SD_SC_, symObjAddr: 0x2C3C, symBinAddr: 0x10000EAD8, symSize: 0x60 }
  - { offset: 0x4F418, size: 0x8, addend: 0x0, symName: __ZSt12__miter_baseIN9__gnu_cxx17__normal_iteratorIPKP15PropertyLiteralSt6vectorIS3_SaIS3_EEEEET_SA_, symObjAddr: 0x2C28, symBinAddr: 0x10000EAC4, symSize: 0x14 }
  - { offset: 0x4F473, size: 0x8, addend: 0x0, symName: __ZN9__gnu_cxx17__normal_iteratorIPP15PropertyLiteralSt6vectorIS2_SaIS2_EEEC1ERKS3_, symObjAddr: 0x2C00, symBinAddr: 0x10000EA9C, symSize: 0x28 }
  - { offset: 0x4F49C, size: 0x8, addend: 0x0, symName: __ZSt22__uninitialized_copy_aIN9__gnu_cxx17__normal_iteratorIPKP15PropertyLiteralSt6vectorIS3_SaIS3_EEEEPS3_S3_ET0_T_SC_SB_RSaIT1_E, symObjAddr: 0x2BD0, symBinAddr: 0x10000EA6C, symSize: 0x30 }
  - { offset: 0x4F533, size: 0x8, addend: 0x0, symName: __ZN9__gnu_cxx17__normal_iteratorIPKP15PropertyLiteralSt6vectorIS2_SaIS2_EEEC1ERKS4_, symObjAddr: 0x2BA8, symBinAddr: 0x10000EA44, symSize: 0x28 }
  - { offset: 0x4F55F, size: 0x8, addend: 0x0, symName: __ZNSt6vectorIP15PropertyLiteralSaIS1_EE15_M_erase_at_endEPS1_, symObjAddr: 0x2B20, symBinAddr: 0x10000E9BC, symSize: 0x88 }
  - { offset: 0x4F5EC, size: 0x8, addend: 0x0, symName: __ZNSt6vectorIP15PropertyLiteralSaIS1_EE11_S_relocateEPS1_S4_S4_RS2_, symObjAddr: 0x2AEC, symBinAddr: 0x10000E988, symSize: 0x34 }
  - { offset: 0x4F649, size: 0x8, addend: 0x0, symName: __ZSt12__to_addressIP15PropertyLiteralEPT_S3_, symObjAddr: 0x2AD8, symBinAddr: 0x10000E974, symSize: 0x14 }
  - { offset: 0x4F67D, size: 0x8, addend: 0x0, symName: __ZNSt12_Vector_baseIP15PropertyLiteralSaIS1_EE11_M_allocateEm, symObjAddr: 0x2A88, symBinAddr: 0x10000E924, symSize: 0x50 }
  - { offset: 0x4F6E4, size: 0x8, addend: 0x0, symName: __ZN9__gnu_cxxmiIPP15PropertyLiteralSt6vectorIS2_SaIS2_EEEENS_17__normal_iteratorIT_T0_E15difference_typeERKSA_SD_, symObjAddr: 0x2A48, symBinAddr: 0x10000E8E4, symSize: 0x40 }
  - { offset: 0x4F734, size: 0x8, addend: 0x0, symName: __ZNKSt6vectorIP15PropertyLiteralSaIS1_EE12_M_check_lenEmPKc, symObjAddr: 0x2978, symBinAddr: 0x10000E814, symSize: 0xD0 }
  - { offset: 0x4F7D0, size: 0x8, addend: 0x0, symName: __ZSt7forwardIRKP15PropertyLiteralEOT_RNSt16remove_referenceIS4_E4typeE, symObjAddr: 0x2964, symBinAddr: 0x10000E800, symSize: 0x14 }
  - { offset: 0x4F801, size: 0x8, addend: 0x0, symName: __ZSt8_DestroyIPP15PropertyLiteralEvT_S3_, symObjAddr: 0x293C, symBinAddr: 0x10000E7D8, symSize: 0x28 }
  - { offset: 0x4F886, size: 0x8, addend: 0x0, symName: __ZNSt6vectorIP4StmtSaIS1_EE12emplace_backIJS1_EEERS1_DpOT_, symObjAddr: 0x2864, symBinAddr: 0x10000E700, symSize: 0xD8 }
  - { offset: 0x4F92D, size: 0x8, addend: 0x0, symName: __ZSt4moveIRP4StmtEONSt16remove_referenceIT_E4typeEOS4_, symObjAddr: 0x2850, symBinAddr: 0x10000E6EC, symSize: 0x14 }
  - { offset: 0x4F95E, size: 0x8, addend: 0x0, symName: __ZSt22__uninitialized_copy_aIPP15PropertyLiteralS2_S1_ET0_T_S4_S3_RSaIT1_E, symObjAddr: 0x2820, symBinAddr: 0x10000E6BC, symSize: 0x30 }
  - { offset: 0x4F9CD, size: 0x8, addend: 0x0, symName: __ZSt4copyIPP15PropertyLiteralS2_ET0_T_S4_S3_, symObjAddr: 0x27D8, symBinAddr: 0x10000E674, symSize: 0x48 }
  - { offset: 0x4FA66, size: 0x8, addend: 0x0, symName: __ZNSt6vectorIP15PropertyLiteralSaIS1_EE3endEv, symObjAddr: 0x27B0, symBinAddr: 0x10000E64C, symSize: 0x28 }
  - { offset: 0x4FA8B, size: 0x8, addend: 0x0, symName: __ZSt4copyIN9__gnu_cxx17__normal_iteratorIPKP15PropertyLiteralSt6vectorIS3_SaIS3_EEEENS1_IPS3_S8_EEET0_T_SD_SC_, symObjAddr: 0x2768, symBinAddr: 0x10000E604, symSize: 0x48 }
  - { offset: 0x4FAEC, size: 0x8, addend: 0x0, symName: __ZNSt6vectorIP15PropertyLiteralSaIS1_EE5beginEv, symObjAddr: 0x2744, symBinAddr: 0x10000E5E0, symSize: 0x24 }
  - { offset: 0x4FB14, size: 0x8, addend: 0x0, symName: __ZNSt6vectorIP15PropertyLiteralSaIS1_EE20_M_allocate_and_copyIN9__gnu_cxx17__normal_iteratorIPKS1_S3_EEEEPS1_mT_SB_, symObjAddr: 0x26C0, symBinAddr: 0x10000E55C, symSize: 0x84 }
  - { offset: 0x4FB89, size: 0x8, addend: 0x0, symName: __ZNKSt6vectorIP15PropertyLiteralSaIS1_EE3endEv, symObjAddr: 0x2698, symBinAddr: 0x10000E534, symSize: 0x28 }
  - { offset: 0x4FBB1, size: 0x8, addend: 0x0, symName: __ZNKSt6vectorIP15PropertyLiteralSaIS1_EE5beginEv, symObjAddr: 0x2674, symBinAddr: 0x10000E510, symSize: 0x24 }
  - { offset: 0x4FBD9, size: 0x8, addend: 0x0, symName: __ZNKSt6vectorIP15PropertyLiteralSaIS1_EE8capacityEv, symObjAddr: 0x264C, symBinAddr: 0x10000E4E8, symSize: 0x28 }
  - { offset: 0x4FC2B, size: 0x8, addend: 0x0, symName: __ZNSt6vectorIP15PropertyLiteralSaIS1_EE5clearEv, symObjAddr: 0x25F8, symBinAddr: 0x10000E4BC, symSize: 0x2C }
  - { offset: 0x4FC64, size: 0x8, addend: 0x0, symName: __ZNKSt12_Vector_baseIP15PropertyLiteralSaIS1_EE19_M_get_Tp_allocatorEv, symObjAddr: 0x25E4, symBinAddr: 0x10000E4A8, symSize: 0x14 }
  - { offset: 0x4FC8C, size: 0x8, addend: 0x0, symName: __ZNSt6vectorIP15PropertyLiteralSaIS1_EE17_M_realloc_appendIJRKS1_EEEvDpOT_, symObjAddr: 0x2428, symBinAddr: 0x10000E2EC, symSize: 0x1BC }
  - { offset: 0x4FE06, size: 0x8, addend: 0x0, symName: __ZZNSt6vectorIP15PropertyLiteralSaIS1_EE17_M_realloc_appendIJRKS1_EEEvDpOT_EN6_GuardC1EPS1_mRS2_, symObjAddr: 0x2384, symBinAddr: 0x10000E248, symSize: 0x44 }
  - { offset: 0x4FE46, size: 0x8, addend: 0x0, symName: __ZZNSt6vectorIP15PropertyLiteralSaIS1_EE17_M_realloc_appendIJRKS1_EEEvDpOT_EN6_GuardD1Ev, symObjAddr: 0x23C8, symBinAddr: 0x10000E28C, symSize: 0x60 }
  - { offset: 0x4FFA6, size: 0x8, addend: 0x0, symName: __ZNSt12_Vector_baseIP15PropertyLiteralSaIS1_EE19_M_get_Tp_allocatorEv, symObjAddr: 0x2370, symBinAddr: 0x10000E234, symSize: 0x14 }
  - { offset: 0x4FFCE, size: 0x8, addend: 0x0, symName: __ZNSt12_Vector_baseIP15PropertyLiteralSaIS1_EE13_M_deallocateEPS1_m, symObjAddr: 0x2318, symBinAddr: 0x10000E1DC, symSize: 0x58 }
  - { offset: 0x5006C, size: 0x8, addend: 0x0, symName: __ZNSt15__new_allocatorIP15PropertyLiteralED2Ev, symObjAddr: 0x2304, symBinAddr: 0x10000E1C8, symSize: 0x14 }
  - { offset: 0x500A8, size: 0x8, addend: 0x0, symName: __ZNSt12_Vector_baseIP15PropertyLiteralSaIS1_EE17_Vector_impl_dataC2Ev, symObjAddr: 0x22D8, symBinAddr: 0x10000E19C, symSize: 0x2C }
  - { offset: 0x500F4, size: 0x8, addend: 0x0, symName: __ZNSt6vectorIP4StmtSaIS1_EE9push_backEOS1_, symObjAddr: 0x210C, symBinAddr: 0x10000E16C, symSize: 0x30 }
  - { offset: 0x5012A, size: 0x8, addend: 0x0, symName: __ZSteqIcSt11char_traitsIcESaIcEEbRKNSt7__cxx1112basic_stringIT_T0_T1_EEPKS5_, symObjAddr: 0x2098, symBinAddr: 0x10000E0F8, symSize: 0x74 }
  - { offset: 0x50183, size: 0x8, addend: 0x0, symName: __ZNSt6vectorIP15PropertyLiteralSaIS1_EEaSERKS3_, symObjAddr: 0x1D50, symBinAddr: 0x10000DDB0, symSize: 0x348 }
  - { offset: 0x502F7, size: 0x8, addend: 0x0, symName: __ZSt11__addressofIKSt6vectorIP15PropertyLiteralSaIS2_EEEPT_RS6_, symObjAddr: 0x1D3C, symBinAddr: 0x10000DD9C, symSize: 0x14 }
  - { offset: 0x5032B, size: 0x8, addend: 0x0, symName: __ZNSt6vectorIP15PropertyLiteralSaIS1_EE9push_backERKS1_, symObjAddr: 0x1C74, symBinAddr: 0x10000DCD4, symSize: 0xC8 }
  - { offset: 0x503EB, size: 0x8, addend: 0x0, symName: __ZNSt6vectorIP15PropertyLiteralSaIS1_EED1Ev, symObjAddr: 0x1C18, symBinAddr: 0x10000DC78, symSize: 0x5C }
  - { offset: 0x50463, size: 0x8, addend: 0x0, symName: __ZNSt12_Vector_baseIP15PropertyLiteralSaIS1_EED2Ev, symObjAddr: 0x1BC8, symBinAddr: 0x10000DC28, symSize: 0x50 }
  - { offset: 0x504BC, size: 0x8, addend: 0x0, symName: __ZNSt12_Vector_baseIP15PropertyLiteralSaIS1_EE12_Vector_implC1Ev, symObjAddr: 0x1B90, symBinAddr: 0x10000DBF0, symSize: 0x38 }
  - { offset: 0x50557, size: 0x8, addend: 0x0, symName: __ZN6Parser10produceASTEv, symObjAddr: 0x19A8, symBinAddr: 0x10000DB28, symSize: 0xC8 }
  - { offset: 0x50593, size: 0x8, addend: 0x0, symName: __ZN6Parser18parse_primary_exprEv, symObjAddr: 0x173C, symBinAddr: 0x10000D8BC, symSize: 0x26C }
  - { offset: 0x50693, size: 0x8, addend: 0x0, symName: __ZN6Parser15parse_mult_exprEv, symObjAddr: 0x14E8, symBinAddr: 0x10000D668, symSize: 0x254 }
  - { offset: 0x50708, size: 0x8, addend: 0x0, symName: __ZN6Parser19parse_additive_exprEv, symObjAddr: 0x12FC, symBinAddr: 0x10000D47C, symSize: 0x1EC }
  - { offset: 0x50795, size: 0x8, addend: 0x0, symName: __ZN10BinaryExprC1Ev, symObjAddr: 0x1258, symBinAddr: 0x10000D3D8, symSize: 0xA4 }
  - { offset: 0x5083B, size: 0x8, addend: 0x0, symName: __ZN6Parser17parse_object_exprEv, symObjAddr: 0xCC4, symBinAddr: 0x10000CE44, symSize: 0x594 }
  - { offset: 0x50B1A, size: 0x8, addend: 0x0, symName: __ZN13ObjectLiteralC1Ev, symObjAddr: 0xC78, symBinAddr: 0x10000CDF8, symSize: 0x4C }
  - { offset: 0x50B5A, size: 0x8, addend: 0x0, symName: __ZN15PropertyLiteralC1Ev, symObjAddr: 0xC24, symBinAddr: 0x10000CDA4, symSize: 0x54 }
  - { offset: 0x50B96, size: 0x8, addend: 0x0, symName: __ZNSt6vectorIP15PropertyLiteralSaIS1_EEC1Ev, symObjAddr: 0xC04, symBinAddr: 0x10000CD84, symSize: 0x20 }
  - { offset: 0x50BD2, size: 0x8, addend: 0x0, symName: __ZNSt12_Vector_baseIP15PropertyLiteralSaIS1_EEC2Ev, symObjAddr: 0xBE4, symBinAddr: 0x10000CD64, symSize: 0x20 }
  - { offset: 0x50C1B, size: 0x8, addend: 0x0, symName: __ZNSt12_Vector_baseIP15PropertyLiteralSaIS1_EE12_Vector_implD1Ev, symObjAddr: 0xBB8, symBinAddr: 0x10000CD38, symSize: 0x2C }
  - { offset: 0x50C64, size: 0x8, addend: 0x0, symName: __ZN6Parser21parse_assignment_exprEv, symObjAddr: 0xAFC, symBinAddr: 0x10000CC7C, symSize: 0xBC }
  - { offset: 0x50CEC, size: 0x8, addend: 0x0, symName: __ZN10AssignExprC1Ev, symObjAddr: 0xABC, symBinAddr: 0x10000CC3C, symSize: 0x40 }
  - { offset: 0x50D14, size: 0x8, addend: 0x0, symName: __ZN6Parser10parse_exprEv, symObjAddr: 0xAA0, symBinAddr: 0x10000CC20, symSize: 0x1C }
  - { offset: 0x50D40, size: 0x8, addend: 0x0, symName: __ZN6Parser21parse_var_declarationEv, symObjAddr: 0x788, symBinAddr: 0x10000C908, symSize: 0x318 }
  - { offset: 0x50F53, size: 0x8, addend: 0x0, symName: __ZN14VarDeclarationC1Ev, symObjAddr: 0x734, symBinAddr: 0x10000C8B4, symSize: 0x54 }
  - { offset: 0x50F7B, size: 0x8, addend: 0x0, symName: __ZN6Parser10parse_stmtEv, symObjAddr: 0x634, symBinAddr: 0x10000C7B4, symSize: 0x100 }
  - { offset: 0x50FA8, size: 0x8, addend: 0x0, symName: __ZN6Parser6expectE9TokenTypeNSt7__cxx1112basic_stringIcSt11char_traitsIcESaIcEEE, symObjAddr: 0x58C, symBinAddr: 0x10000C70C, symSize: 0xA8 }
  - { offset: 0x51003, size: 0x8, addend: 0x0, symName: __ZN6Parser3eatEv, symObjAddr: 0x528, symBinAddr: 0x10000C6A8, symSize: 0x64 }
  - { offset: 0x5102F, size: 0x8, addend: 0x0, symName: __ZN6Parser2atEv, symObjAddr: 0x4D0, symBinAddr: 0x10000C650, symSize: 0x58 }
  - { offset: 0x5107E, size: 0x8, addend: 0x0, symName: __ZN5TokenC1ERKS_, symObjAddr: 0x464, symBinAddr: 0x10000C608, symSize: 0x48 }
  - { offset: 0x510AA, size: 0x8, addend: 0x0, symName: __ZNK13ObjectLiteral7getKindEv, symObjAddr: 0x44C, symBinAddr: 0x10000C5F0, symSize: 0x18 }
  - { offset: 0x510D2, size: 0x8, addend: 0x0, symName: __ZNK15PropertyLiteral7getKindEv, symObjAddr: 0x434, symBinAddr: 0x10000C5D8, symSize: 0x18 }
  - { offset: 0x510FA, size: 0x8, addend: 0x0, symName: __ZNK10Identifier7getKindEv, symObjAddr: 0x41C, symBinAddr: 0x10000C5C0, symSize: 0x18 }
  - { offset: 0x51154, size: 0x8, addend: 0x0, symName: __ZN10IdentifierC1ENSt7__cxx1112basic_stringIcSt11char_traitsIcESaIcEEE, symObjAddr: 0x348, symBinAddr: 0x10000C4EC, symSize: 0xD4 }
  - { offset: 0x5122C, size: 0x8, addend: 0x0, symName: __ZNK10BinaryExpr7getKindEv, symObjAddr: 0x1C4, symBinAddr: 0x10000C4D4, symSize: 0x18 }
  - { offset: 0x51254, size: 0x8, addend: 0x0, symName: __ZNK10AssignExpr7getKindEv, symObjAddr: 0x1AC, symBinAddr: 0x10000C4BC, symSize: 0x18 }
  - { offset: 0x5127C, size: 0x8, addend: 0x0, symName: __ZNK14VarDeclaration7getKindEv, symObjAddr: 0x194, symBinAddr: 0x10000C4A4, symSize: 0x18 }
  - { offset: 0x5C8AC, size: 0x8, addend: 0x0, symName: __ZStL8__ioinit, symObjAddr: 0x7A5A0, symBinAddr: 0x100028053, symSize: 0x0 }
  - { offset: 0x5D28F, size: 0x8, addend: 0x0, symName: __ZN7NullValD0Ev, symObjAddr: 0x2D64, symBinAddr: 0x100011FE4, symSize: 0x28 }
  - { offset: 0x5D2B7, size: 0x8, addend: 0x0, symName: __ZN7NullValD1Ev, symObjAddr: 0x2D24, symBinAddr: 0x100011FA4, symSize: 0x40 }
  - { offset: 0x5D300, size: 0x8, addend: 0x0, symName: __ZN9NumberValD0Ev, symObjAddr: 0x2CFC, symBinAddr: 0x100011F7C, symSize: 0x28 }
  - { offset: 0x5D328, size: 0x8, addend: 0x0, symName: __ZN9NumberValD1Ev, symObjAddr: 0x2CC8, symBinAddr: 0x100011F48, symSize: 0x34 }
  - { offset: 0x5D371, size: 0x8, addend: 0x0, symName: __ZN11ObjectValueD0Ev, symObjAddr: 0x2CA0, symBinAddr: 0x100011F20, symSize: 0x28 }
  - { offset: 0x5D399, size: 0x8, addend: 0x0, symName: __ZN11ObjectValueD1Ev, symObjAddr: 0x2C60, symBinAddr: 0x100011EE0, symSize: 0x40 }
  - { offset: 0x5D3C1, size: 0x8, addend: 0x0, symName: __ZNK9__gnu_cxx16__aligned_bufferISt4pairIKNSt7__cxx1112basic_stringIcSt11char_traitsIcESaIcEEEP5ValueEE7_M_addrEv, symObjAddr: 0x2BFC, symBinAddr: 0x100011ECC, symSize: 0x14 }
  - { offset: 0x5D3E9, size: 0x8, addend: 0x0, symName: __ZNK9__gnu_cxx16__aligned_bufferISt4pairIKNSt7__cxx1112basic_stringIcSt11char_traitsIcESaIcEEEP5ValueEE6_M_ptrEv, symObjAddr: 0x2BB0, symBinAddr: 0x100011EB0, symSize: 0x1C }
  - { offset: 0x5D411, size: 0x8, addend: 0x0, symName: __ZNSt15__new_allocatorIPNSt8__detail15_Hash_node_baseEE8allocateEmPKv, symObjAddr: 0x2B34, symBinAddr: 0x100011E34, symSize: 0x7C }
  - { offset: 0x5D4FC, size: 0x8, addend: 0x0, symName: __ZNSt4pairIKNSt7__cxx1112basic_stringIcSt11char_traitsIcESaIcEEEP5ValueEC1IJRS6_EJLm0EEJEJEEERSt5tupleIJDpT_EERSC_IJDpT1_EESt12_Index_tupleIJXspT0_EEESL_IJXspT2_EEE, symObjAddr: 0x2AE0, symBinAddr: 0x100011DE0, symSize: 0x54 }
  - { offset: 0x5D570, size: 0x8, addend: 0x0, symName: __ZSt7forwardIRKSt4pairIKNSt7__cxx1112basic_stringIcSt11char_traitsIcESaIcEEEP5ValueEEOT_RNSt16remove_referenceISD_E4typeE, symObjAddr: 0x2A4C, symBinAddr: 0x100011DCC, symSize: 0x14 }
  - { offset: 0x5D5B8, size: 0x8, addend: 0x0, symName: __ZNKSt8__detail21_Hashtable_ebo_helperILi0ESt8equal_toINSt7__cxx1112basic_stringIcSt11char_traitsIcESaIcEEEELb1EE7_M_cgetEv, symObjAddr: 0x2A38, symBinAddr: 0x100011DB8, symSize: 0x14 }
  - { offset: 0x5D5DD, size: 0x8, addend: 0x0, symName: __ZSt11__addressofINSt8__detail10_Hash_nodeISt4pairIKNSt7__cxx1112basic_stringIcSt11char_traitsIcESaIcEEEP5ValueELb1EEEEPT_RSE_, symObjAddr: 0x2A24, symBinAddr: 0x100011DA4, symSize: 0x14 }
  - { offset: 0x5D60E, size: 0x8, addend: 0x0, symName: __ZSt12__to_addressIPNSt8__detail15_Hash_node_baseEEPT_S4_, symObjAddr: 0x2A10, symBinAddr: 0x100011D90, symSize: 0x14 }
  - { offset: 0x5D6AB, size: 0x8, addend: 0x0, symName: __ZNSt4pairIKNSt7__cxx1112basic_stringIcSt11char_traitsIcESaIcEEEP5ValueEC1IJRS6_EJEEESt21piecewise_construct_tSt5tupleIJDpT_EESD_IJDpT0_EE, symObjAddr: 0x29D4, symBinAddr: 0x100011D54, symSize: 0x3C }
  - { offset: 0x5D6F9, size: 0x8, addend: 0x0, symName: __ZNKSt8equal_toINSt7__cxx1112basic_stringIcSt11char_traitsIcESaIcEEEEclERKS5_S8_, symObjAddr: 0x2984, symBinAddr: 0x100011D2C, symSize: 0x28 }
  - { offset: 0x5D74E, size: 0x8, addend: 0x0, symName: __ZNKSt8__detail10_Select1stclIRKSt4pairIKNSt7__cxx1112basic_stringIcSt11char_traitsIcESaIcEEEP5ValueEEEONS0_10__1st_typeIT_E4typeEOSG_, symObjAddr: 0x2964, symBinAddr: 0x100011D0C, symSize: 0x20 }
  - { offset: 0x5D7A2, size: 0x8, addend: 0x0, symName: __ZNKSt8__detail15_Hashtable_baseINSt7__cxx1112basic_stringIcSt11char_traitsIcESaIcEEESt4pairIKS6_P5ValueENS_10_Select1stESt8equal_toIS6_ESt4hashIS6_ENS_18_Mod_range_hashingENS_20_Default_ranged_hashENS_17_Hashtable_traitsILb1ELb0ELb1EEEE5_M_eqEv, symObjAddr: 0x2948, symBinAddr: 0x100011CF0, symSize: 0x1C }
  - { offset: 0x5D7C7, size: 0x8, addend: 0x0, symName: __ZSt11__addressofIPNSt8__detail15_Hash_node_baseEEPT_RS3_, symObjAddr: 0x2934, symBinAddr: 0x100011CDC, symSize: 0x14 }
  - { offset: 0x5D7F8, size: 0x8, addend: 0x0, symName: __ZSt9addressofINSt8__detail10_Hash_nodeISt4pairIKNSt7__cxx1112basic_stringIcSt11char_traitsIcESaIcEEEP5ValueELb1EEEEPT_RSE_, symObjAddr: 0x2918, symBinAddr: 0x100011CC0, symSize: 0x1C }
  - { offset: 0x5D82C, size: 0x8, addend: 0x0, symName: __ZNSt8__detail16_Hashtable_allocISaINS_10_Hash_nodeISt4pairIKNSt7__cxx1112basic_stringIcSt11char_traitsIcESaIcEEEP5ValueELb1EEEEE19_M_allocate_bucketsEm, symObjAddr: 0x2868, symBinAddr: 0x100011C10, symSize: 0xB0 }
  - { offset: 0x5D94D, size: 0x8, addend: 0x0, symName: __ZNSt15__new_allocatorINSt8__detail10_Hash_nodeISt4pairIKNSt7__cxx1112basic_stringIcSt11char_traitsIcESaIcEEEP5ValueELb1EEEE10deallocateEPSD_m, symObjAddr: 0x282C, symBinAddr: 0x100011BD4, symSize: 0x3C }
  - { offset: 0x5D9F1, size: 0x8, addend: 0x0, symName: __ZNSt15__new_allocatorINSt8__detail10_Hash_nodeISt4pairIKNSt7__cxx1112basic_stringIcSt11char_traitsIcESaIcEEEP5ValueELb1EEEE8allocateEmPKv, symObjAddr: 0x276C, symBinAddr: 0x100011B3C, symSize: 0x98 }
  - { offset: 0x5DA73, size: 0x8, addend: 0x0, symName: __ZNKSt8__detail15_Hashtable_baseINSt7__cxx1112basic_stringIcSt11char_traitsIcESaIcEEESt4pairIKS6_P5ValueENS_10_Select1stESt8equal_toIS6_ESt4hashIS6_ENS_18_Mod_range_hashingENS_20_Default_ranged_hashENS_17_Hashtable_traitsILb1ELb0ELb1EEEE13_M_key_equalsERS8_RKNS_16_Hash_node_valueISB_Lb1EEE, symObjAddr: 0x26EC, symBinAddr: 0x100011AD0, symSize: 0x6C }
  - { offset: 0x5DB00, size: 0x8, addend: 0x0, symName: __ZNSt8__detail15_Hashtable_baseINSt7__cxx1112basic_stringIcSt11char_traitsIcESaIcEEESt4pairIKS6_P5ValueENS_10_Select1stESt8equal_toIS6_ESt4hashIS6_ENS_18_Mod_range_hashingENS_20_Default_ranged_hashENS_17_Hashtable_traitsILb1ELb0ELb1EEEE9_S_equalsEmRKNS_21_Hash_node_code_cacheILb1EEE, symObjAddr: 0x26C0, symBinAddr: 0x100011AA4, symSize: 0x2C }
  - { offset: 0x5DB3E, size: 0x8, addend: 0x0, symName: __ZNSt15__new_allocatorIPNSt8__detail15_Hash_node_baseEE10deallocateEPS2_m, symObjAddr: 0x2690, symBinAddr: 0x100011A74, symSize: 0x30 }
  - { offset: 0x5DBA5, size: 0x8, addend: 0x0, symName: __ZNSt15__new_allocatorIPNSt8__detail15_Hash_node_baseEED2Ev, symObjAddr: 0x267C, symBinAddr: 0x100011A60, symSize: 0x14 }
  - { offset: 0x5DBDA, size: 0x8, addend: 0x0, symName: __ZSt9addressofIPNSt8__detail15_Hash_node_baseEEPT_RS3_, symObjAddr: 0x2660, symBinAddr: 0x100011A44, symSize: 0x1C }
  - { offset: 0x5DC0B, size: 0x8, addend: 0x0, symName: __ZNSt19__ptr_traits_ptr_toIPNSt8__detail10_Hash_nodeISt4pairIKNSt7__cxx1112basic_stringIcSt11char_traitsIcESaIcEEEP5ValueELb1EEESD_Lb0EE10pointer_toERSD_, symObjAddr: 0x2644, symBinAddr: 0x100011A28, symSize: 0x1C }
  - { offset: 0x5DC85, size: 0x8, addend: 0x0, symName: __ZNSt4pairIKNSt7__cxx1112basic_stringIcSt11char_traitsIcESaIcEEEP5ValueED1Ev, symObjAddr: 0x2624, symBinAddr: 0x100011A08, symSize: 0x20 }
  - { offset: 0x5DCA9, size: 0x8, addend: 0x0, symName: __ZNSt8__detail21_Hashtable_ebo_helperILi0ESaINS_10_Hash_nodeISt4pairIKNSt7__cxx1112basic_stringIcSt11char_traitsIcESaIcEEEP5ValueELb1EEEELb1EE6_M_getEv, symObjAddr: 0x2610, symBinAddr: 0x1000119F4, symSize: 0x14 }
  - { offset: 0x5DCD1, size: 0x8, addend: 0x0, symName: __ZNKSt8__detail15_Hash_code_baseINSt7__cxx1112basic_stringIcSt11char_traitsIcESaIcEEESt4pairIKS6_P5ValueENS_10_Select1stESt4hashIS6_ENS_18_Mod_range_hashingENS_20_Default_ranged_hashELb1EE15_M_bucket_indexERKNS_16_Hash_node_valueISB_Lb1EEEm, symObjAddr: 0x25BC, symBinAddr: 0x1000119C4, symSize: 0x30 }
  - { offset: 0x5DD1B, size: 0x8, addend: 0x0, symName: __ZNSt10_HashtableINSt7__cxx1112basic_stringIcSt11char_traitsIcESaIcEEESt4pairIKS5_P5ValueESaISA_ENSt8__detail10_Select1stESt8equal_toIS5_ESt4hashIS5_ENSC_18_Mod_range_hashingENSC_20_Default_ranged_hashENSC_20_Prime_rehash_policyENSC_17_Hashtable_traitsILb1ELb0ELb1EEEE19_M_allocate_bucketsEm, symObjAddr: 0x2564, symBinAddr: 0x10001196C, symSize: 0x58 }
  - { offset: 0x5DD51, size: 0x8, addend: 0x0, symName: __ZSt11__addressofINSt8__detail20_Prime_rehash_policyEEPT_RS2_, symObjAddr: 0x2550, symBinAddr: 0x100011958, symSize: 0x14 }
  - { offset: 0x5DE04, size: 0x8, addend: 0x0, symName: __ZSt12__to_addressINSt8__detail10_Hash_nodeISt4pairIKNSt7__cxx1112basic_stringIcSt11char_traitsIcESaIcEEEP5ValueELb1EEEEPT_SF_, symObjAddr: 0x253C, symBinAddr: 0x100011944, symSize: 0x14 }
  - { offset: 0x5DE59, size: 0x8, addend: 0x0, symName: __ZNKSt10_HashtableINSt7__cxx1112basic_stringIcSt11char_traitsIcESaIcEEESt4pairIKS5_P5ValueESaISA_ENSt8__detail10_Select1stESt8equal_toIS5_ESt4hashIS5_ENSC_18_Mod_range_hashingENSC_20_Default_ranged_hashENSC_20_Prime_rehash_policyENSC_17_Hashtable_traitsILb1ELb0ELb1EEEE15_M_bucket_indexERKNSC_16_Hash_node_valueISA_Lb1EEE, symObjAddr: 0x24CC, symBinAddr: 0x100011914, symSize: 0x30 }
  - { offset: 0x5DE92, size: 0x8, addend: 0x0, symName: __ZNKSt8__detail15_Hashtable_baseINSt7__cxx1112basic_stringIcSt11char_traitsIcESaIcEEESt4pairIKS6_P5ValueENS_10_Select1stESt8equal_toIS6_ESt4hashIS6_ENS_18_Mod_range_hashingENS_20_Default_ranged_hashENS_17_Hashtable_traitsILb1ELb0ELb1EEEE9_M_equalsERS8_mRKNS_16_Hash_node_valueISB_Lb1EEE, symObjAddr: 0x2464, symBinAddr: 0x1000118AC, symSize: 0x68 }
  - { offset: 0x5DEED, size: 0x8, addend: 0x0, symName: __ZNKSt8__detail21_Hashtable_ebo_helperILi1ESt4hashINSt7__cxx1112basic_stringIcSt11char_traitsIcESaIcEEEELb1EE7_M_cgetEv, symObjAddr: 0x2450, symBinAddr: 0x100011898, symSize: 0x14 }
  - { offset: 0x5DF7F, size: 0x8, addend: 0x0, symName: __ZNSt19__ptr_traits_ptr_toIPPNSt8__detail15_Hash_node_baseES2_Lb0EE10pointer_toERS2_, symObjAddr: 0x2434, symBinAddr: 0x10001187C, symSize: 0x1C }
  - { offset: 0x5DFAA, size: 0x8, addend: 0x0, symName: __ZNSt8__detail16_Hashtable_allocISaINS_10_Hash_nodeISt4pairIKNSt7__cxx1112basic_stringIcSt11char_traitsIcESaIcEEEP5ValueELb1EEEEE22_M_deallocate_node_ptrEPSD_, symObjAddr: 0x23DC, symBinAddr: 0x100011824, symSize: 0x58 }
  - { offset: 0x5E051, size: 0x8, addend: 0x0, symName: __ZNSt8__detail16_Hashtable_allocISaINS_10_Hash_nodeISt4pairIKNSt7__cxx1112basic_stringIcSt11char_traitsIcESaIcEEEP5ValueELb1EEEEE17_M_node_allocatorEv, symObjAddr: 0x23C0, symBinAddr: 0x100011808, symSize: 0x1C }
  - { offset: 0x5E079, size: 0x8, addend: 0x0, symName: __ZNSt10_HashtableINSt7__cxx1112basic_stringIcSt11char_traitsIcESaIcEEESt4pairIKS5_P5ValueESaISA_ENSt8__detail10_Select1stESt8equal_toIS5_ESt4hashIS5_ENSC_18_Mod_range_hashingENSC_20_Default_ranged_hashENSC_20_Prime_rehash_policyENSC_17_Hashtable_traitsILb1ELb0ELb1EEEE22_M_insert_bucket_beginEmPNSC_10_Hash_nodeISA_Lb1EEE, symObjAddr: 0x228C, symBinAddr: 0x1000116FC, symSize: 0x10C }
  - { offset: 0x5E0C3, size: 0x8, addend: 0x0, symName: __ZNKSt8__detail15_Hash_code_baseINSt7__cxx1112basic_stringIcSt11char_traitsIcESaIcEEESt4pairIKS6_P5ValueENS_10_Select1stESt4hashIS6_ENS_18_Mod_range_hashingENS_20_Default_ranged_hashELb1EE13_M_store_codeERNS_21_Hash_node_code_cacheILb1EEEm, symObjAddr: 0x2264, symBinAddr: 0x1000116D4, symSize: 0x28 }
  - { offset: 0x5E10D, size: 0x8, addend: 0x0, symName: __ZNSt10_HashtableINSt7__cxx1112basic_stringIcSt11char_traitsIcESaIcEEESt4pairIKS5_P5ValueESaISA_ENSt8__detail10_Select1stESt8equal_toIS5_ESt4hashIS5_ENSC_18_Mod_range_hashingENSC_20_Default_ranged_hashENSC_20_Prime_rehash_policyENSC_17_Hashtable_traitsILb1ELb0ELb1EEEE9_M_rehashEmSt17integral_constantIbLb1EE, symObjAddr: 0x20F8, symBinAddr: 0x100011568, symSize: 0x16C }
  - { offset: 0x5E1D8, size: 0x8, addend: 0x0, symName: __ZNSt8__detail17_RehashStateGuardINS_20_Prime_rehash_policyEED1Ev, symObjAddr: 0x20B4, symBinAddr: 0x100011524, symSize: 0x44 }
  - { offset: 0x5E221, size: 0x8, addend: 0x0, symName: __ZNSt8__detail17_RehashStateGuardINS_20_Prime_rehash_policyEEC1ERS1_, symObjAddr: 0x2070, symBinAddr: 0x1000114E0, symSize: 0x44 }
  - { offset: 0x5E24D, size: 0x8, addend: 0x0, symName: __ZNSt8__detail16_Hashtable_allocISaINS_10_Hash_nodeISt4pairIKNSt7__cxx1112basic_stringIcSt11char_traitsIcESaIcEEEP5ValueELb1EEEEE16_M_allocate_nodeIJRKSt21piecewise_construct_tSt5tupleIJRS9_EESK_IJEEEEEPSD_DpOT_, symObjAddr: 0x1E84, symBinAddr: 0x1000112F4, symSize: 0x1EC }
  - { offset: 0x5E406, size: 0x8, addend: 0x0, symName: __ZNSt8__detail10_Hash_nodeISt4pairIKNSt7__cxx1112basic_stringIcSt11char_traitsIcESaIcEEEP5ValueELb1EEC1Ev, symObjAddr: 0x1E64, symBinAddr: 0x1000112D4, symSize: 0x20 }
  - { offset: 0x5E43E, size: 0x8, addend: 0x0, symName: __ZNKSt10_HashtableINSt7__cxx1112basic_stringIcSt11char_traitsIcESaIcEEESt4pairIKS5_P5ValueESaISA_ENSt8__detail10_Select1stESt8equal_toIS5_ESt4hashIS5_ENSC_18_Mod_range_hashingENSC_20_Default_ranged_hashENSC_20_Prime_rehash_policyENSC_17_Hashtable_traitsILb1ELb0ELb1EEEE19_M_find_before_nodeEmRS7_m, symObjAddr: 0x1D04, symBinAddr: 0x1000111D8, symSize: 0xFC }
  - { offset: 0x5E4CE, size: 0x8, addend: 0x0, symName: __ZNKSt8__detail15_Hash_code_baseINSt7__cxx1112basic_stringIcSt11char_traitsIcESaIcEEESt4pairIKS6_P5ValueENS_10_Select1stESt4hashIS6_ENS_18_Mod_range_hashingENS_20_Default_ranged_hashELb1EE15_M_bucket_indexEmm, symObjAddr: 0x1CD8, symBinAddr: 0x1000111AC, symSize: 0x2C }
  - { offset: 0x5E518, size: 0x8, addend: 0x0, symName: __ZNKSt15__str_hash_baseIcSaIcENSt7__cxx1112basic_stringIcSt11char_traitsIcES0_EEEclERKS5_, symObjAddr: 0x1C90, symBinAddr: 0x100011164, symSize: 0x48 }
  - { offset: 0x5E551, size: 0x8, addend: 0x0, symName: __ZNKSt8__detail15_Hash_code_baseINSt7__cxx1112basic_stringIcSt11char_traitsIcESaIcEEESt4pairIKS6_P5ValueENS_10_Select1stESt4hashIS6_ENS_18_Mod_range_hashingENS_20_Default_ranged_hashELb1EE7_M_hashEv, symObjAddr: 0x1C74, symBinAddr: 0x100011148, symSize: 0x1C }
  - { offset: 0x5E579, size: 0x8, addend: 0x0, symName: __ZNSt8__detail16_Hashtable_allocISaINS_10_Hash_nodeISt4pairIKNSt7__cxx1112basic_stringIcSt11char_traitsIcESaIcEEEP5ValueELb1EEEEE21_M_deallocate_bucketsEPPNS_15_Hash_node_baseEm, symObjAddr: 0x1BFC, symBinAddr: 0x1000110D0, symSize: 0x78 }
  - { offset: 0x5E682, size: 0x8, addend: 0x0, symName: __ZNKSt10_HashtableINSt7__cxx1112basic_stringIcSt11char_traitsIcESaIcEEESt4pairIKS5_P5ValueESaISA_ENSt8__detail10_Select1stESt8equal_toIS5_ESt4hashIS5_ENSC_18_Mod_range_hashingENSC_20_Default_ranged_hashENSC_20_Prime_rehash_policyENSC_17_Hashtable_traitsILb1ELb0ELb1EEEE21_M_uses_single_bucketEPPNSC_15_Hash_node_baseE, symObjAddr: 0x1BC0, symBinAddr: 0x100011094, symSize: 0x3C }
  - { offset: 0x5E6BB, size: 0x8, addend: 0x0, symName: __ZNSt8__detail16_Hashtable_allocISaINS_10_Hash_nodeISt4pairIKNSt7__cxx1112basic_stringIcSt11char_traitsIcESaIcEEEP5ValueELb1EEEEE18_M_deallocate_nodeEPSD_, symObjAddr: 0x1B44, symBinAddr: 0x100011018, symSize: 0x7C }
  - { offset: 0x5E76D, size: 0x8, addend: 0x0, symName: __ZNKSt8__detail14_Node_iteratorISt4pairIKNSt7__cxx1112basic_stringIcSt11char_traitsIcESaIcEEEP5ValueELb0ELb1EEptEv, symObjAddr: 0x1AFC, symBinAddr: 0x100010FE8, symSize: 0x30 }
  - { offset: 0x5E7B8, size: 0x8, addend: 0x0, symName: __ZNSt10_HashtableINSt7__cxx1112basic_stringIcSt11char_traitsIcESaIcEEESt4pairIKS5_P5ValueESaISA_ENSt8__detail10_Select1stESt8equal_toIS5_ESt4hashIS5_ENSC_18_Mod_range_hashingENSC_20_Default_ranged_hashENSC_20_Prime_rehash_policyENSC_17_Hashtable_traitsILb1ELb0ELb1EEEE21_M_insert_unique_nodeEmmPNSC_10_Hash_nodeISA_Lb1EEEm, symObjAddr: 0x19EC, symBinAddr: 0x100010ED8, symSize: 0x110 }
  - { offset: 0x5E86A, size: 0x8, addend: 0x0, symName: __ZNSt10_HashtableINSt7__cxx1112basic_stringIcSt11char_traitsIcESaIcEEESt4pairIKS5_P5ValueESaISA_ENSt8__detail10_Select1stESt8equal_toIS5_ESt4hashIS5_ENSC_18_Mod_range_hashingENSC_20_Default_ranged_hashENSC_20_Prime_rehash_policyENSC_17_Hashtable_traitsILb1ELb0ELb1EEEE12_Scoped_nodeD1Ev, symObjAddr: 0x19A8, symBinAddr: 0x100010E94, symSize: 0x44 }
  - { offset: 0x5E8DD, size: 0x8, addend: 0x0, symName: __ZNSt10_HashtableINSt7__cxx1112basic_stringIcSt11char_traitsIcESaIcEEESt4pairIKS5_P5ValueESaISA_ENSt8__detail10_Select1stESt8equal_toIS5_ESt4hashIS5_ENSC_18_Mod_range_hashingENSC_20_Default_ranged_hashENSC_20_Prime_rehash_policyENSC_17_Hashtable_traitsILb1ELb0ELb1EEEE12_Scoped_nodeC1IJRKSt21piecewise_construct_tSt5tupleIJRS7_EEST_IJEEEEEPNSC_16_Hashtable_allocISaINSC_10_Hash_nodeISA_Lb1EEEEEEDpOT_, symObjAddr: 0x1920, symBinAddr: 0x100010E0C, symSize: 0x88 }
  - { offset: 0x5E950, size: 0x8, addend: 0x0, symName: __ZNKSt10_HashtableINSt7__cxx1112basic_stringIcSt11char_traitsIcESaIcEEESt4pairIKS5_P5ValueESaISA_ENSt8__detail10_Select1stESt8equal_toIS5_ESt4hashIS5_ENSC_18_Mod_range_hashingENSC_20_Default_ranged_hashENSC_20_Prime_rehash_policyENSC_17_Hashtable_traitsILb1ELb0ELb1EEEE12_M_find_nodeEmRS7_m, symObjAddr: 0x18A4, symBinAddr: 0x100010DB8, symSize: 0x54 }
  - { offset: 0x5E9BC, size: 0x8, addend: 0x0, symName: __ZNKSt10_HashtableINSt7__cxx1112basic_stringIcSt11char_traitsIcESaIcEEESt4pairIKS5_P5ValueESaISA_ENSt8__detail10_Select1stESt8equal_toIS5_ESt4hashIS5_ENSC_18_Mod_range_hashingENSC_20_Default_ranged_hashENSC_20_Prime_rehash_policyENSC_17_Hashtable_traitsILb1ELb0ELb1EEEE15_M_bucket_indexEm, symObjAddr: 0x1874, symBinAddr: 0x100010D88, symSize: 0x30 }
  - { offset: 0x5E9F5, size: 0x8, addend: 0x0, symName: __ZNKSt8__detail15_Hash_code_baseINSt7__cxx1112basic_stringIcSt11char_traitsIcESaIcEEESt4pairIKS6_P5ValueENS_10_Select1stESt4hashIS6_ENS_18_Mod_range_hashingENS_20_Default_ranged_hashELb1EE12_M_hash_codeERS8_, symObjAddr: 0x184C, symBinAddr: 0x100010D60, symSize: 0x28 }
  - { offset: 0x5EA2E, size: 0x8, addend: 0x0, symName: __ZNSt10_HashtableINSt7__cxx1112basic_stringIcSt11char_traitsIcESaIcEEESt4pairIKS5_P5ValueESaISA_ENSt8__detail10_Select1stESt8equal_toIS5_ESt4hashIS5_ENSC_18_Mod_range_hashingENSC_20_Default_ranged_hashENSC_20_Prime_rehash_policyENSC_17_Hashtable_traitsILb1ELb0ELb1EEEE21_M_deallocate_bucketsEPPNSC_15_Hash_node_baseEm, symObjAddr: 0x1800, symBinAddr: 0x100010D14, symSize: 0x4C }
  - { offset: 0x5EA78, size: 0x8, addend: 0x0, symName: __ZNSt8__detail16_Hashtable_allocISaINS_10_Hash_nodeISt4pairIKNSt7__cxx1112basic_stringIcSt11char_traitsIcESaIcEEEP5ValueELb1EEEEE19_M_deallocate_nodesEPSD_, symObjAddr: 0x17B0, symBinAddr: 0x100010CC4, symSize: 0x50 }
  - { offset: 0x5EAD5, size: 0x8, addend: 0x0, symName: __ZNSt8__detail9_Map_baseINSt7__cxx1112basic_stringIcSt11char_traitsIcESaIcEEESt4pairIKS6_P5ValueESaISB_ENS_10_Select1stESt8equal_toIS6_ESt4hashIS6_ENS_18_Mod_range_hashingENS_20_Default_ranged_hashENS_20_Prime_rehash_policyENS_17_Hashtable_traitsILb1ELb0ELb1EEELb1EEixERS8_, symObjAddr: 0x1678, symBinAddr: 0x100010BA4, symSize: 0x120 }
  - { offset: 0x5EBD7, size: 0x8, addend: 0x0, symName: __ZNSt10_HashtableINSt7__cxx1112basic_stringIcSt11char_traitsIcESaIcEEESt4pairIKS5_P5ValueESaISA_ENSt8__detail10_Select1stESt8equal_toIS5_ESt4hashIS5_ENSC_18_Mod_range_hashingENSC_20_Default_ranged_hashENSC_20_Prime_rehash_policyENSC_17_Hashtable_traitsILb1ELb0ELb1EEEE21_M_deallocate_bucketsEv, symObjAddr: 0x1608, symBinAddr: 0x100010B70, symSize: 0x34 }
  - { offset: 0x5EBFF, size: 0x8, addend: 0x0, symName: __ZNSt10_HashtableINSt7__cxx1112basic_stringIcSt11char_traitsIcESaIcEEESt4pairIKS5_P5ValueESaISA_ENSt8__detail10_Select1stESt8equal_toIS5_ESt4hashIS5_ENSC_18_Mod_range_hashingENSC_20_Default_ranged_hashENSC_20_Prime_rehash_policyENSC_17_Hashtable_traitsILb1ELb0ELb1EEEE5clearEv, symObjAddr: 0x15A8, symBinAddr: 0x100010B10, symSize: 0x60 }
  - { offset: 0x5EC48, size: 0x8, addend: 0x0, symName: __ZNSt15__new_allocatorINSt8__detail10_Hash_nodeISt4pairIKNSt7__cxx1112basic_stringIcSt11char_traitsIcESaIcEEEP5ValueELb1EEEED2Ev, symObjAddr: 0x1594, symBinAddr: 0x100010AFC, symSize: 0x14 }
  - { offset: 0x5EC80, size: 0x8, addend: 0x0, symName: __ZNSt13unordered_mapINSt7__cxx1112basic_stringIcSt11char_traitsIcESaIcEEEP5ValueSt4hashIS5_ESt8equal_toIS5_ESaISt4pairIKS5_S7_EEEixERSD_, symObjAddr: 0x13D4, symBinAddr: 0x100010AD8, symSize: 0x24 }
  - { offset: 0x5ECB9, size: 0x8, addend: 0x0, symName: __ZNK9__gnu_cxx17__normal_iteratorIPP15PropertyLiteralSt6vectorIS2_SaIS2_EEEdeEv, symObjAddr: 0x13BC, symBinAddr: 0x100010AC0, symSize: 0x18 }
  - { offset: 0x5ECE1, size: 0x8, addend: 0x0, symName: __ZN9__gnu_cxx17__normal_iteratorIPP15PropertyLiteralSt6vectorIS2_SaIS2_EEEppEv, symObjAddr: 0x1394, symBinAddr: 0x100010A98, symSize: 0x28 }
  - { offset: 0x5ED0C, size: 0x8, addend: 0x0, symName: __ZN9__gnu_cxxneIPP15PropertyLiteralSt6vectorIS2_SaIS2_EEEEbRKNS_17__normal_iteratorIT_T0_EESC_, symObjAddr: 0x1350, symBinAddr: 0x100010A54, symSize: 0x44 }
  - { offset: 0x5ED7D, size: 0x8, addend: 0x0, symName: __ZNSt10_HashtableINSt7__cxx1112basic_stringIcSt11char_traitsIcESaIcEEESt4pairIKS5_P5ValueESaISA_ENSt8__detail10_Select1stESt8equal_toIS5_ESt4hashIS5_ENSC_18_Mod_range_hashingENSC_20_Default_ranged_hashENSC_20_Prime_rehash_policyENSC_17_Hashtable_traitsILb1ELb0ELb1EEEED1Ev, symObjAddr: 0x12D4, symBinAddr: 0x100010A24, symSize: 0x30 }
  - { offset: 0x5EDF7, size: 0x8, addend: 0x0, symName: __Z8evaluateP4StmtP3Env, symObjAddr: 0xE64, symBinAddr: 0x1000107EC, symSize: 0x238 }
  - { offset: 0x5EF77, size: 0x8, addend: 0x0, symName: __Z19eval_var_assignmentP10AssignExprP3Env, symObjAddr: 0xD64, symBinAddr: 0x1000106EC, symSize: 0x100 }
  - { offset: 0x5EFCB, size: 0x8, addend: 0x0, symName: __Z20eval_var_declarationP14VarDeclarationP3Env, symObjAddr: 0xCB8, symBinAddr: 0x100010640, symSize: 0xAC }
  - { offset: 0x5F01D, size: 0x8, addend: 0x0, symName: __Z10eval_identP10IdentifierP3Env, symObjAddr: 0xC4C, symBinAddr: 0x1000105D4, symSize: 0x6C }
  - { offset: 0x5F06F, size: 0x8, addend: 0x0, symName: __Z16eval_object_exprP13ObjectLiteralP3Env, symObjAddr: 0xB08, symBinAddr: 0x100010490, symSize: 0x144 }
  - { offset: 0x5F134, size: 0x8, addend: 0x0, symName: __ZN11ObjectValueC1Ev, symObjAddr: 0xABC, symBinAddr: 0x100010444, symSize: 0x4C }
  - { offset: 0x5F17D, size: 0x8, addend: 0x0, symName: __ZNSt13unordered_mapINSt7__cxx1112basic_stringIcSt11char_traitsIcESaIcEEEP5ValueSt4hashIS5_ESt8equal_toIS5_ESaISt4pairIKS5_S7_EEED1Ev, symObjAddr: 0xA9C, symBinAddr: 0x100010424, symSize: 0x20 }
  - { offset: 0x5F1C7, size: 0x8, addend: 0x0, symName: __ZNSt8__detail16_Hashtable_allocISaINS_10_Hash_nodeISt4pairIKNSt7__cxx1112basic_stringIcSt11char_traitsIcESaIcEEEP5ValueELb1EEEEED2Ev, symObjAddr: 0x9EC, symBinAddr: 0x100010404, symSize: 0x20 }
  - { offset: 0x5F211, size: 0x8, addend: 0x0, symName: __ZNSt8__detail21_Hashtable_ebo_helperILi0ESaINS_10_Hash_nodeISt4pairIKNSt7__cxx1112basic_stringIcSt11char_traitsIcESaIcEEEP5ValueELb1EEEELb1EED2Ev, symObjAddr: 0x9A0, symBinAddr: 0x1000103D8, symSize: 0x2C }
  - { offset: 0x5F260, size: 0x8, addend: 0x0, symName: __Z13eval_bin_exprP10BinaryExprP3Env, symObjAddr: 0x59C, symBinAddr: 0x10001001C, symSize: 0x3BC }
  - { offset: 0x5F452, size: 0x8, addend: 0x0, symName: __ZN9NumberValC1Ev, symObjAddr: 0x554, symBinAddr: 0x10000FFD4, symSize: 0x48 }
  - { offset: 0x5F47E, size: 0x8, addend: 0x0, symName: __Z9isIntegere, symObjAddr: 0x524, symBinAddr: 0x10000FFA4, symSize: 0x30 }
  - { offset: 0x5F4B1, size: 0x8, addend: 0x0, symName: __Z12eval_programP7ProgramP3Env, symObjAddr: 0x458, symBinAddr: 0x10000FED8, symSize: 0xCC }
  - { offset: 0x5F53A, size: 0x8, addend: 0x0, symName: __ZN7NullValC1Ev, symObjAddr: 0x3B4, symBinAddr: 0x10000FE34, symSize: 0xA4 }
  - { offset: 0x5F5FD, size: 0x8, addend: 0x0, symName: __ZN5ValueD0Ev, symObjAddr: 0x38C, symBinAddr: 0x10000FE0C, symSize: 0x28 }
  - { offset: 0x5F625, size: 0x8, addend: 0x0, symName: __ZN5ValueD1Ev, symObjAddr: 0x364, symBinAddr: 0x10000FDE4, symSize: 0x28 }
  - { offset: 0x5F64D, size: 0x8, addend: 0x0, symName: __ZN5ValueD2Ev, symObjAddr: 0x33C, symBinAddr: 0x10000FDBC, symSize: 0x28 }
  - { offset: 0x5F68D, size: 0x8, addend: 0x0, symName: __ZN5ValueC2Ev, symObjAddr: 0x30C, symBinAddr: 0x10000FD8C, symSize: 0x30 }
  - { offset: 0x5F6AE, size: 0x8, addend: 0x0, symName: __ZSt5floore, symObjAddr: 0x2F0, symBinAddr: 0x10000FD70, symSize: 0x1C }
  - { offset: 0x5F6DB, size: 0x8, addend: 0x0, symName: __ZNK11ObjectValue7getTypeEv, symObjAddr: 0x2D8, symBinAddr: 0x10000FD58, symSize: 0x18 }
  - { offset: 0x5F703, size: 0x8, addend: 0x0, symName: __ZNK9NumberVal7getTypeEv, symObjAddr: 0x2C0, symBinAddr: 0x10000FD40, symSize: 0x18 }
  - { offset: 0x5F72B, size: 0x8, addend: 0x0, symName: __ZNK7NullVal7getTypeEv, symObjAddr: 0x2A8, symBinAddr: 0x10000FD28, symSize: 0x18 }
  - { offset: 0x5F753, size: 0x8, addend: 0x0, symName: __ZNK5Value7getTypeEv, symObjAddr: 0x290, symBinAddr: 0x10000FD10, symSize: 0x18 }
  - { offset: 0x5F77B, size: 0x8, addend: 0x0, symName: __ZNSt8__detail20_Prime_rehash_policy8_M_resetEm, symObjAddr: 0x26C, symBinAddr: 0x10000FCEC, symSize: 0x24 }
  - { offset: 0x5F7B4, size: 0x8, addend: 0x0, symName: __ZNKSt8__detail20_Prime_rehash_policy8_M_stateEv, symObjAddr: 0x254, symBinAddr: 0x10000FCD4, symSize: 0x18 }
  - { offset: 0x5F7DC, size: 0x8, addend: 0x0, symName: __ZNKSt8__detail18_Mod_range_hashingclEmm, symObjAddr: 0x1F8, symBinAddr: 0x10000FCA4, symSize: 0x30 }
  - { offset: 0x5F83E, size: 0x8, addend: 0x0, symName: __ZNSt8__detail15_Hash_node_baseC2Ev, symObjAddr: 0x1C0, symBinAddr: 0x10000FC88, symSize: 0x1C }
  - { offset: 0x5F85F, size: 0x8, addend: 0x0, symName: __ZNSt10_Hash_impl4hashEPKvmm, symObjAddr: 0x194, symBinAddr: 0x10000FC5C, symSize: 0x2C }
  - { offset: 0x69313, size: 0x8, addend: 0x0, symName: __ZStL8__ioinit, symObjAddr: 0x71185, symBinAddr: 0x100028054, symSize: 0x0 }
  - { offset: 0x69C2C, size: 0x8, addend: 0x0, symName: __ZN9BoolValueD0Ev, symObjAddr: 0x3D98, symBinAddr: 0x1000140B4, symSize: 0x28 }
  - { offset: 0x69C54, size: 0x8, addend: 0x0, symName: __ZN9BoolValueD1Ev, symObjAddr: 0x3D64, symBinAddr: 0x100014080, symSize: 0x34 }
  - { offset: 0x69C75, size: 0x8, addend: 0x0, symName: __ZSt11__addressofINSt8__detail10_Hash_nodeINSt7__cxx1112basic_stringIcSt11char_traitsIcESaIcEEELb1EEEEPT_RS9_, symObjAddr: 0x3D38, symBinAddr: 0x10001406C, symSize: 0x14 }
  - { offset: 0x69CA9, size: 0x8, addend: 0x0, symName: __ZNSt8__detail16_Hashtable_allocISaINS_10_Hash_nodeINSt7__cxx1112basic_stringIcSt11char_traitsIcESaIcEEELb1EEEEE21_M_deallocate_bucketsEPPNS_15_Hash_node_baseEm, symObjAddr: 0x3CA4, symBinAddr: 0x100013FF4, symSize: 0x78 }
  - { offset: 0x69DB2, size: 0x8, addend: 0x0, symName: __ZNKSt10_HashtableINSt7__cxx1112basic_stringIcSt11char_traitsIcESaIcEEES5_SaIS5_ENSt8__detail9_IdentityESt8equal_toIS5_ESt4hashIS5_ENS7_18_Mod_range_hashingENS7_20_Default_ranged_hashENS7_20_Prime_rehash_policyENS7_17_Hashtable_traitsILb1ELb1ELb1EEEE21_M_uses_single_bucketEPPNS7_15_Hash_node_baseE, symObjAddr: 0x3C68, symBinAddr: 0x100013FB8, symSize: 0x3C }
  - { offset: 0x69E0A, size: 0x8, addend: 0x0, symName: __ZSt9addressofINSt8__detail10_Hash_nodeINSt7__cxx1112basic_stringIcSt11char_traitsIcESaIcEEELb1EEEEPT_RS9_, symObjAddr: 0x3C4C, symBinAddr: 0x100013F9C, symSize: 0x1C }
  - { offset: 0x69E42, size: 0x8, addend: 0x0, symName: __ZN9__gnu_cxx16__aligned_bufferINSt7__cxx1112basic_stringIcSt11char_traitsIcESaIcEEEE7_M_addrEv, symObjAddr: 0x3C38, symBinAddr: 0x100013F88, symSize: 0x14 }
  - { offset: 0x69E6A, size: 0x8, addend: 0x0, symName: __ZNSt15__new_allocatorINSt8__detail10_Hash_nodeINSt7__cxx1112basic_stringIcSt11char_traitsIcESaIcEEELb1EEEE10deallocateEPS8_m, symObjAddr: 0x3BFC, symBinAddr: 0x100013F4C, symSize: 0x3C }
  - { offset: 0x69EEE, size: 0x8, addend: 0x0, symName: __ZNSt15__new_allocatorINSt8__detail10_Hash_nodeINSt7__cxx1112basic_stringIcSt11char_traitsIcESaIcEEELb1EEEE8allocateEmPKv, symObjAddr: 0x3B6C, symBinAddr: 0x100013EBC, symSize: 0x90 }
  - { offset: 0x69F70, size: 0x8, addend: 0x0, symName: __ZNSt10_HashtableINSt7__cxx1112basic_stringIcSt11char_traitsIcESaIcEEES5_SaIS5_ENSt8__detail9_IdentityESt8equal_toIS5_ESt4hashIS5_ENS7_18_Mod_range_hashingENS7_20_Default_ranged_hashENS7_20_Prime_rehash_policyENS7_17_Hashtable_traitsILb1ELb1ELb1EEEE21_M_deallocate_bucketsEPPNS7_15_Hash_node_baseEm, symObjAddr: 0x3AF0, symBinAddr: 0x100013E70, symSize: 0x4C }
  - { offset: 0x69FBA, size: 0x8, addend: 0x0, symName: __ZNSt8__detail16_Hashtable_allocISaINS_10_Hash_nodeINSt7__cxx1112basic_stringIcSt11char_traitsIcESaIcEEELb1EEEEE19_M_allocate_bucketsEm, symObjAddr: 0x3A40, symBinAddr: 0x100013DC0, symSize: 0xB0 }
  - { offset: 0x6A0D8, size: 0x8, addend: 0x0, symName: __ZNSt19__ptr_traits_ptr_toIPNSt8__detail10_Hash_nodeINSt7__cxx1112basic_stringIcSt11char_traitsIcESaIcEEELb1EEES8_Lb0EE10pointer_toERS8_, symObjAddr: 0x3A24, symBinAddr: 0x100013DA4, symSize: 0x1C }
  - { offset: 0x6A12C, size: 0x8, addend: 0x0, symName: __ZN9__gnu_cxx16__aligned_bufferINSt7__cxx1112basic_stringIcSt11char_traitsIcESaIcEEEE6_M_ptrEv, symObjAddr: 0x3A08, symBinAddr: 0x100013D88, symSize: 0x1C }
  - { offset: 0x6A154, size: 0x8, addend: 0x0, symName: __ZNSt8__detail21_Hashtable_ebo_helperILi0ESaINS_10_Hash_nodeINSt7__cxx1112basic_stringIcSt11char_traitsIcESaIcEEELb1EEEELb1EE6_M_getEv, symObjAddr: 0x39F4, symBinAddr: 0x100013D74, symSize: 0x14 }
  - { offset: 0x6A1E7, size: 0x8, addend: 0x0, symName: __ZSt12__to_addressINSt8__detail10_Hash_nodeINSt7__cxx1112basic_stringIcSt11char_traitsIcESaIcEEELb1EEEEPT_SA_, symObjAddr: 0x39E0, symBinAddr: 0x100013D60, symSize: 0x14 }
  - { offset: 0x6A23C, size: 0x8, addend: 0x0, symName: __ZNSt10_HashtableINSt7__cxx1112basic_stringIcSt11char_traitsIcESaIcEEES5_SaIS5_ENSt8__detail9_IdentityESt8equal_toIS5_ESt4hashIS5_ENS7_18_Mod_range_hashingENS7_20_Default_ranged_hashENS7_20_Prime_rehash_policyENS7_17_Hashtable_traitsILb1ELb1ELb1EEEE21_M_deallocate_bucketsEv, symObjAddr: 0x3944, symBinAddr: 0x100013D2C, symSize: 0x34 }
  - { offset: 0x6A264, size: 0x8, addend: 0x0, symName: __ZNSt10_HashtableINSt7__cxx1112basic_stringIcSt11char_traitsIcESaIcEEES5_SaIS5_ENSt8__detail9_IdentityESt8equal_toIS5_ESt4hashIS5_ENS7_18_Mod_range_hashingENS7_20_Default_ranged_hashENS7_20_Prime_rehash_policyENS7_17_Hashtable_traitsILb1ELb1ELb1EEEE19_M_allocate_bucketsEm, symObjAddr: 0x38EC, symBinAddr: 0x100013CD4, symSize: 0x58 }
  - { offset: 0x6A29D, size: 0x8, addend: 0x0, symName: __ZNSt8__detail16_Hashtable_allocISaINS_10_Hash_nodeINSt7__cxx1112basic_stringIcSt11char_traitsIcESaIcEEELb1EEEEE22_M_deallocate_node_ptrEPS8_, symObjAddr: 0x3894, symBinAddr: 0x100013C7C, symSize: 0x58 }
  - { offset: 0x6A358, size: 0x8, addend: 0x0, symName: __ZNSt8__detail16_Hashtable_allocISaINS_10_Hash_nodeINSt7__cxx1112basic_stringIcSt11char_traitsIcESaIcEEELb1EEEEE17_M_node_allocatorEv, symObjAddr: 0x3878, symBinAddr: 0x100013C60, symSize: 0x1C }
  - { offset: 0x6A380, size: 0x8, addend: 0x0, symName: __ZNSt8__detail16_Hashtable_allocISaINS_10_Hash_nodeINSt7__cxx1112basic_stringIcSt11char_traitsIcESaIcEEELb1EEEEE16_M_allocate_nodeIJRKS7_EEEPS8_DpOT_, symObjAddr: 0x3704, symBinAddr: 0x100013AEC, symSize: 0x174 }
  - { offset: 0x6A4F9, size: 0x8, addend: 0x0, symName: __ZNSt8__detail10_Hash_nodeINSt7__cxx1112basic_stringIcSt11char_traitsIcESaIcEEELb1EEC1Ev, symObjAddr: 0x36E4, symBinAddr: 0x100013ACC, symSize: 0x20 }
  - { offset: 0x6A51D, size: 0x8, addend: 0x0, symName: __ZNKSt8__detail15_Hashtable_baseINSt7__cxx1112basic_stringIcSt11char_traitsIcESaIcEEES6_NS_9_IdentityESt8equal_toIS6_ESt4hashIS6_ENS_18_Mod_range_hashingENS_20_Default_ranged_hashENS_17_Hashtable_traitsILb1ELb1ELb1EEEE12_M_equals_trIS6_EEbRKT_mRKNS_16_Hash_node_valueIS6_Lb1EEE, symObjAddr: 0x367C, symBinAddr: 0x100013A64, symSize: 0x68 }
  - { offset: 0x6A5C7, size: 0x8, addend: 0x0, symName: __ZNK9__gnu_cxx16__aligned_bufferINSt7__cxx1112basic_stringIcSt11char_traitsIcESaIcEEEE7_M_addrEv, symObjAddr: 0x3554, symBinAddr: 0x100013A50, symSize: 0x14 }
  - { offset: 0x6A5F2, size: 0x8, addend: 0x0, symName: __ZSt7forwardIRNSt8__detail14_Node_iteratorINSt7__cxx1112basic_stringIcSt11char_traitsIcESaIcEEELb1ELb1EEEEOT_RNSt16remove_referenceISA_E4typeE, symObjAddr: 0x3540, symBinAddr: 0x100013A3C, symSize: 0x14 }
  - { offset: 0x6A626, size: 0x8, addend: 0x0, symName: __ZNSt10_HashtableINSt7__cxx1112basic_stringIcSt11char_traitsIcESaIcEEES5_SaIS5_ENSt8__detail9_IdentityESt8equal_toIS5_ESt4hashIS5_ENS7_18_Mod_range_hashingENS7_20_Default_ranged_hashENS7_20_Prime_rehash_policyENS7_17_Hashtable_traitsILb1ELb1ELb1EEEE22_M_insert_bucket_beginEmPNS7_10_Hash_nodeIS5_Lb1EEE, symObjAddr: 0x3434, symBinAddr: 0x100013930, symSize: 0x10C }
  - { offset: 0x6A670, size: 0x8, addend: 0x0, symName: __ZNKSt8__detail15_Hash_code_baseINSt7__cxx1112basic_stringIcSt11char_traitsIcESaIcEEES6_NS_9_IdentityESt4hashIS6_ENS_18_Mod_range_hashingENS_20_Default_ranged_hashELb1EE13_M_store_codeERNS_21_Hash_node_code_cacheILb1EEEm, symObjAddr: 0x340C, symBinAddr: 0x100013908, symSize: 0x28 }
  - { offset: 0x6A6BA, size: 0x8, addend: 0x0, symName: __ZNSt10_HashtableINSt7__cxx1112basic_stringIcSt11char_traitsIcESaIcEEES5_SaIS5_ENSt8__detail9_IdentityESt8equal_toIS5_ESt4hashIS5_ENS7_18_Mod_range_hashingENS7_20_Default_ranged_hashENS7_20_Prime_rehash_policyENS7_17_Hashtable_traitsILb1ELb1ELb1EEEE9_M_rehashEmSt17integral_constantIbLb1EE, symObjAddr: 0x32A0, symBinAddr: 0x10001379C, symSize: 0x16C }
  - { offset: 0x6A764, size: 0x8, addend: 0x0, symName: __ZNSt8__detail16_Hashtable_allocISaINS_10_Hash_nodeINSt7__cxx1112basic_stringIcSt11char_traitsIcESaIcEEELb1EEEEE18_M_deallocate_nodeEPS8_, symObjAddr: 0x3224, symBinAddr: 0x100013720, symSize: 0x7C }
  - { offset: 0x6A821, size: 0x8, addend: 0x0, symName: __ZNKSt8__detail10_AllocNodeISaINS_10_Hash_nodeINSt7__cxx1112basic_stringIcSt11char_traitsIcESaIcEEELb1EEEEEclIJRKS7_EEEPS8_DpOT_, symObjAddr: 0x31E8, symBinAddr: 0x1000136E4, symSize: 0x3C }
  - { offset: 0x6A861, size: 0x8, addend: 0x0, symName: __ZNKSt10_HashtableINSt7__cxx1112basic_stringIcSt11char_traitsIcESaIcEEES5_SaIS5_ENSt8__detail9_IdentityESt8equal_toIS5_ESt4hashIS5_ENS7_18_Mod_range_hashingENS7_20_Default_ranged_hashENS7_20_Prime_rehash_policyENS7_17_Hashtable_traitsILb1ELb1ELb1EEEE22_M_find_before_node_trIS5_EEPNS7_15_Hash_node_baseEmRKT_m, symObjAddr: 0x30EC, symBinAddr: 0x1000135E8, symSize: 0xFC }
  - { offset: 0x6A8FD, size: 0x8, addend: 0x0, symName: __ZSt7forwardINSt8__detail14_Node_iteratorINSt7__cxx1112basic_stringIcSt11char_traitsIcESaIcEEELb1ELb1EEEEOT_RNSt16remove_referenceIS9_E4typeE, symObjAddr: 0x30D8, symBinAddr: 0x1000135D4, symSize: 0x14 }
  - { offset: 0x6A96F, size: 0x8, addend: 0x0, symName: __ZNKSt8__detail15_Hash_code_baseINSt7__cxx1112basic_stringIcSt11char_traitsIcESaIcEEES6_NS_9_IdentityESt4hashIS6_ENS_18_Mod_range_hashingENS_20_Default_ranged_hashELb1EE15_M_bucket_indexERKNS_16_Hash_node_valueIS6_Lb1EEEm, symObjAddr: 0x2F4C, symBinAddr: 0x1000135A4, symSize: 0x30 }
  - { offset: 0x6A9B6, size: 0x8, addend: 0x0, symName: __ZNSt8__detail15_Hashtable_baseINSt7__cxx1112basic_stringIcSt11char_traitsIcESaIcEEES6_NS_9_IdentityESt8equal_toIS6_ESt4hashIS6_ENS_18_Mod_range_hashingENS_20_Default_ranged_hashENS_17_Hashtable_traitsILb1ELb1ELb1EEEE9_S_equalsEmRKNS_21_Hash_node_code_cacheILb1EEE, symObjAddr: 0x2F20, symBinAddr: 0x100013578, symSize: 0x2C }
  - { offset: 0x6A9F4, size: 0x8, addend: 0x0, symName: __ZNK9__gnu_cxx16__aligned_bufferINSt7__cxx1112basic_stringIcSt11char_traitsIcESaIcEEEE6_M_ptrEv, symObjAddr: 0x2F04, symBinAddr: 0x10001355C, symSize: 0x1C }
  - { offset: 0x6AA60, size: 0x8, addend: 0x0, symName: __ZNSt4pairINSt8__detail14_Node_iteratorINSt7__cxx1112basic_stringIcSt11char_traitsIcESaIcEEELb1ELb1EEEbEC1IRS8_bLb1EEEOT_OT0_, symObjAddr: 0x2EB8, symBinAddr: 0x100013510, symSize: 0x4C }
  - { offset: 0x6AAA6, size: 0x8, addend: 0x0, symName: __ZNSt10_HashtableINSt7__cxx1112basic_stringIcSt11char_traitsIcESaIcEEES5_SaIS5_ENSt8__detail9_IdentityESt8equal_toIS5_ESt4hashIS5_ENS7_18_Mod_range_hashingENS7_20_Default_ranged_hashENS7_20_Prime_rehash_policyENS7_17_Hashtable_traitsILb1ELb1ELb1EEEE21_M_insert_unique_nodeEmmPNS7_10_Hash_nodeIS5_Lb1EEEm, symObjAddr: 0x2DA8, symBinAddr: 0x100013400, symSize: 0x110 }
  - { offset: 0x6AB58, size: 0x8, addend: 0x0, symName: __ZNSt10_HashtableINSt7__cxx1112basic_stringIcSt11char_traitsIcESaIcEEES5_SaIS5_ENSt8__detail9_IdentityESt8equal_toIS5_ESt4hashIS5_ENS7_18_Mod_range_hashingENS7_20_Default_ranged_hashENS7_20_Prime_rehash_policyENS7_17_Hashtable_traitsILb1ELb1ELb1EEEE12_Scoped_nodeD1Ev, symObjAddr: 0x2D64, symBinAddr: 0x1000133BC, symSize: 0x44 }
  - { offset: 0x6ABAE, size: 0x8, addend: 0x0, symName: __ZNSt10_HashtableINSt7__cxx1112basic_stringIcSt11char_traitsIcESaIcEEES5_SaIS5_ENSt8__detail9_IdentityESt8equal_toIS5_ESt4hashIS5_ENS7_18_Mod_range_hashingENS7_20_Default_ranged_hashENS7_20_Prime_rehash_policyENS7_17_Hashtable_traitsILb1ELb1ELb1EEEE12_Scoped_nodeC1EPNS7_10_Hash_nodeIS5_Lb1EEEPNS7_16_Hashtable_allocISaISL_EEE, symObjAddr: 0x2D30, symBinAddr: 0x100013388, symSize: 0x34 }
  - { offset: 0x6ABE5, size: 0x8, addend: 0x0, symName: __ZNSt8__detail12_NodeBuilderINS_9_IdentityEE8_S_buildIRKNSt7__cxx1112basic_stringIcSt11char_traitsIcESaIcEEESB_NS_10_AllocNodeISaINS_10_Hash_nodeIS9_Lb1EEEEEEEENT1_10__node_ptrEOT_OT0_RKSH_, symObjAddr: 0x2D00, symBinAddr: 0x100013358, symSize: 0x30 }
  - { offset: 0x6AC42, size: 0x8, addend: 0x0, symName: __ZNKSt10_HashtableINSt7__cxx1112basic_stringIcSt11char_traitsIcESaIcEEES5_SaIS5_ENSt8__detail9_IdentityESt8equal_toIS5_ESt4hashIS5_ENS7_18_Mod_range_hashingENS7_20_Default_ranged_hashENS7_20_Prime_rehash_policyENS7_17_Hashtable_traitsILb1ELb1ELb1EEEE15_M_find_node_trIS5_EEPNS7_10_Hash_nodeIS5_Lb1EEEmRKT_m, symObjAddr: 0x2CAC, symBinAddr: 0x100013304, symSize: 0x54 }
  - { offset: 0x6ACB7, size: 0x8, addend: 0x0, symName: __ZNKSt8__detail15_Hash_code_baseINSt7__cxx1112basic_stringIcSt11char_traitsIcESaIcEEES6_NS_9_IdentityESt4hashIS6_ENS_18_Mod_range_hashingENS_20_Default_ranged_hashELb1EE15_M_hash_code_trIS6_EEmRKT_, symObjAddr: 0x2C84, symBinAddr: 0x1000132DC, symSize: 0x28 }
  - { offset: 0x6AD3D, size: 0x8, addend: 0x0, symName: __ZNSt4pairINSt8__detail14_Node_iteratorINSt7__cxx1112basic_stringIcSt11char_traitsIcESaIcEEELb1ELb1EEEbEC1IS8_bLb1EEEOT_OT0_, symObjAddr: 0x2C38, symBinAddr: 0x100013290, symSize: 0x4C }
  - { offset: 0x6AD83, size: 0x8, addend: 0x0, symName: __ZNKSt8__detail15_Hashtable_baseINSt7__cxx1112basic_stringIcSt11char_traitsIcESaIcEEES6_NS_9_IdentityESt8equal_toIS6_ESt4hashIS6_ENS_18_Mod_range_hashingENS_20_Default_ranged_hashENS_17_Hashtable_traitsILb1ELb1ELb1EEEE16_M_key_equals_trIS6_EEbRKT_RKNS_16_Hash_node_valueIS6_Lb1EEE, symObjAddr: 0x2BCC, symBinAddr: 0x100013224, symSize: 0x6C }
  - { offset: 0x6AE28, size: 0x8, addend: 0x0, symName: __ZNKSt10_HashtableINSt7__cxx1112basic_stringIcSt11char_traitsIcESaIcEEES5_SaIS5_ENSt8__detail9_IdentityESt8equal_toIS5_ESt4hashIS5_ENS7_18_Mod_range_hashingENS7_20_Default_ranged_hashENS7_20_Prime_rehash_policyENS7_17_Hashtable_traitsILb1ELb1ELb1EEEE15_M_bucket_indexERKNS7_16_Hash_node_valueIS5_Lb1EEE, symObjAddr: 0x28F8, symBinAddr: 0x1000131F4, symSize: 0x30 }
  - { offset: 0x6AE61, size: 0x8, addend: 0x0, symName: __ZNKSt8__detail15_Hashtable_baseINSt7__cxx1112basic_stringIcSt11char_traitsIcESaIcEEES6_NS_9_IdentityESt8equal_toIS6_ESt4hashIS6_ENS_18_Mod_range_hashingENS_20_Default_ranged_hashENS_17_Hashtable_traitsILb1ELb1ELb1EEEE9_M_equalsERKS6_mRKNS_16_Hash_node_valueIS6_Lb1EEE, symObjAddr: 0x2890, symBinAddr: 0x10001318C, symSize: 0x68 }
  - { offset: 0x6AED0, size: 0x8, addend: 0x0, symName: __ZNSt10_HashtableINSt7__cxx1112basic_stringIcSt11char_traitsIcESaIcEEES5_SaIS5_ENSt8__detail9_IdentityESt8equal_toIS5_ESt4hashIS5_ENS7_18_Mod_range_hashingENS7_20_Default_ranged_hashENS7_20_Prime_rehash_policyENS7_17_Hashtable_traitsILb1ELb1ELb1EEEE16_M_insert_uniqueIRKS5_SL_NS7_10_AllocNodeISaINS7_10_Hash_nodeIS5_Lb1EEEEEEEESt4pairINS7_14_Node_iteratorIS5_Lb1ELb1EEEbEOT_OT0_RKT1_, symObjAddr: 0x2690, symBinAddr: 0x100012F8C, symSize: 0x200 }
  - { offset: 0x6AFE6, size: 0x8, addend: 0x0, symName: __ZNSt10_HashtableINSt7__cxx1112basic_stringIcSt11char_traitsIcESaIcEEES5_SaIS5_ENSt8__detail9_IdentityESt8equal_toIS5_ESt4hashIS5_ENS7_18_Mod_range_hashingENS7_20_Default_ranged_hashENS7_20_Prime_rehash_policyENS7_17_Hashtable_traitsILb1ELb1ELb1EEEE14_S_forward_keyERKS5_, symObjAddr: 0x267C, symBinAddr: 0x100012F78, symSize: 0x14 }
  - { offset: 0x6B013, size: 0x8, addend: 0x0, symName: __ZNKSt10_HashtableINSt7__cxx1112basic_stringIcSt11char_traitsIcESaIcEEES5_SaIS5_ENSt8__detail9_IdentityESt8equal_toIS5_ESt4hashIS5_ENS7_18_Mod_range_hashingENS7_20_Default_ranged_hashENS7_20_Prime_rehash_policyENS7_17_Hashtable_traitsILb1ELb1ELb1EEEE19_M_find_before_nodeEmRKS5_m, symObjAddr: 0x2294, symBinAddr: 0x100012E7C, symSize: 0xFC }
  - { offset: 0x6B0A3, size: 0x8, addend: 0x0, symName: __ZNKSt8__detail15_Hash_code_baseINSt7__cxx1112basic_stringIcSt11char_traitsIcESaIcEEES6_NS_9_IdentityESt4hashIS6_ENS_18_Mod_range_hashingENS_20_Default_ranged_hashELb1EE15_M_bucket_indexEmm, symObjAddr: 0x2268, symBinAddr: 0x100012E50, symSize: 0x2C }
  - { offset: 0x6B0ED, size: 0x8, addend: 0x0, symName: __ZNKSt8__detail15_Hash_code_baseINSt7__cxx1112basic_stringIcSt11char_traitsIcESaIcEEES6_NS_9_IdentityESt4hashIS6_ENS_18_Mod_range_hashingENS_20_Default_ranged_hashELb1EE7_M_hashEv, symObjAddr: 0x224C, symBinAddr: 0x100012E34, symSize: 0x1C }
  - { offset: 0x6B13A, size: 0x8, addend: 0x0, symName: __ZNSt8__detail19_Node_iterator_baseINSt7__cxx1112basic_stringIcSt11char_traitsIcESaIcEEELb1EEC2EPNS_10_Hash_nodeIS6_Lb1EEE, symObjAddr: 0x2228, symBinAddr: 0x100012E10, symSize: 0x24 }
  - { offset: 0x6B171, size: 0x8, addend: 0x0, symName: __ZNKSt8__detail9_IdentityclIRKNSt7__cxx1112basic_stringIcSt11char_traitsIcESaIcEEEEEOT_SB_, symObjAddr: 0x2208, symBinAddr: 0x100012DF0, symSize: 0x20 }
  - { offset: 0x6B1C5, size: 0x8, addend: 0x0, symName: __ZNKSt8__detail15_Hashtable_baseINSt7__cxx1112basic_stringIcSt11char_traitsIcESaIcEEES6_NS_9_IdentityESt8equal_toIS6_ESt4hashIS6_ENS_18_Mod_range_hashingENS_20_Default_ranged_hashENS_17_Hashtable_traitsILb1ELb1ELb1EEEE5_M_eqEv, symObjAddr: 0x21EC, symBinAddr: 0x100012DD4, symSize: 0x1C }
  - { offset: 0x6B1ED, size: 0x8, addend: 0x0, symName: __ZNSt10_HashtableINSt7__cxx1112basic_stringIcSt11char_traitsIcESaIcEEES5_SaIS5_ENSt8__detail9_IdentityESt8equal_toIS5_ESt4hashIS5_ENS7_18_Mod_range_hashingENS7_20_Default_ranged_hashENS7_20_Prime_rehash_policyENS7_17_Hashtable_traitsILb1ELb1ELb1EEEE20_M_insert_unique_auxIRKS5_NS7_10_AllocNodeISaINS7_10_Hash_nodeIS5_Lb1EEEEEEEESt4pairINS7_14_Node_iteratorIS5_Lb1ELb1EEEbEOT_RKT0_, symObjAddr: 0x2190, symBinAddr: 0x100012D78, symSize: 0x5C }
  - { offset: 0x6B254, size: 0x8, addend: 0x0, symName: __ZNKSt8__detail19_ConvertToValueTypeINS_9_IdentityENSt7__cxx1112basic_stringIcSt11char_traitsIcESaIcEEEEclIRKS7_EEOT_SD_, symObjAddr: 0x2170, symBinAddr: 0x100012D58, symSize: 0x20 }
  - { offset: 0x6B291, size: 0x8, addend: 0x0, symName: __ZNSt8__detail22_Hashtable_hash_traitsISt4hashINSt7__cxx1112basic_stringIcSt11char_traitsIcESaIcEEEEE22__small_size_thresholdEv, symObjAddr: 0x192C, symBinAddr: 0x100012D50, symSize: 0x8 }
  - { offset: 0x6B2AC, size: 0x8, addend: 0x0, symName: __ZNKSt10_HashtableINSt7__cxx1112basic_stringIcSt11char_traitsIcESaIcEEES5_SaIS5_ENSt8__detail9_IdentityESt8equal_toIS5_ESt4hashIS5_ENS7_18_Mod_range_hashingENS7_20_Default_ranged_hashENS7_20_Prime_rehash_policyENS7_17_Hashtable_traitsILb1ELb1ELb1EEEE12_M_find_nodeEmRKS5_m, symObjAddr: 0x18D8, symBinAddr: 0x100012CFC, symSize: 0x54 }
  - { offset: 0x6B318, size: 0x8, addend: 0x0, symName: __ZNKSt10_HashtableINSt7__cxx1112basic_stringIcSt11char_traitsIcESaIcEEES5_SaIS5_ENSt8__detail9_IdentityESt8equal_toIS5_ESt4hashIS5_ENS7_18_Mod_range_hashingENS7_20_Default_ranged_hashENS7_20_Prime_rehash_policyENS7_17_Hashtable_traitsILb1ELb1ELb1EEEE15_M_bucket_indexEm, symObjAddr: 0x18A8, symBinAddr: 0x100012CCC, symSize: 0x30 }
  - { offset: 0x6B351, size: 0x8, addend: 0x0, symName: __ZNKSt8__detail15_Hash_code_baseINSt7__cxx1112basic_stringIcSt11char_traitsIcESaIcEEES6_NS_9_IdentityESt4hashIS6_ENS_18_Mod_range_hashingENS_20_Default_ranged_hashELb1EE12_M_hash_codeERKS6_, symObjAddr: 0x1880, symBinAddr: 0x100012CA4, symSize: 0x28 }
  - { offset: 0x6B3AF, size: 0x8, addend: 0x0, symName: __ZNSt8__detail14_Node_iteratorINSt7__cxx1112basic_stringIcSt11char_traitsIcESaIcEEELb1ELb1EEC1EPNS_10_Hash_nodeIS6_Lb1EEE, symObjAddr: 0x1858, symBinAddr: 0x100012C7C, symSize: 0x28 }
  - { offset: 0x6B3DB, size: 0x8, addend: 0x0, symName: __ZNKSt8__detail15_Hashtable_baseINSt7__cxx1112basic_stringIcSt11char_traitsIcESaIcEEES6_NS_9_IdentityESt8equal_toIS6_ESt4hashIS6_ENS_18_Mod_range_hashingENS_20_Default_ranged_hashENS_17_Hashtable_traitsILb1ELb1ELb1EEEE13_M_key_equalsERKS6_RKNS_16_Hash_node_valueIS6_Lb1EEE, symObjAddr: 0x17EC, symBinAddr: 0x100012C10, symSize: 0x6C }
  - { offset: 0x6B46B, size: 0x8, addend: 0x0, symName: __ZNKSt8__detail10_Hash_nodeINSt7__cxx1112basic_stringIcSt11char_traitsIcESaIcEEELb1EE7_M_nextEv, symObjAddr: 0x17D4, symBinAddr: 0x100012BF8, symSize: 0x18 }
  - { offset: 0x6B493, size: 0x8, addend: 0x0, symName: __ZNKSt10_HashtableINSt7__cxx1112basic_stringIcSt11char_traitsIcESaIcEEES5_SaIS5_ENSt8__detail9_IdentityESt8equal_toIS5_ESt4hashIS5_ENS7_18_Mod_range_hashingENS7_20_Default_ranged_hashENS7_20_Prime_rehash_policyENS7_17_Hashtable_traitsILb1ELb1ELb1EEEE8_M_beginEv, symObjAddr: 0x17BC, symBinAddr: 0x100012BE0, symSize: 0x18 }
  - { offset: 0x6B4B8, size: 0x8, addend: 0x0, symName: __ZNSt10_HashtableINSt7__cxx1112basic_stringIcSt11char_traitsIcESaIcEEES5_SaIS5_ENSt8__detail9_IdentityESt8equal_toIS5_ESt4hashIS5_ENS7_18_Mod_range_hashingENS7_20_Default_ranged_hashENS7_20_Prime_rehash_policyENS7_17_Hashtable_traitsILb1ELb1ELb1EEEE22__small_size_thresholdEv, symObjAddr: 0x17A8, symBinAddr: 0x100012BCC, symSize: 0x14 }
  - { offset: 0x6B4D3, size: 0x8, addend: 0x0, symName: __ZNKSt10_HashtableINSt7__cxx1112basic_stringIcSt11char_traitsIcESaIcEEES5_SaIS5_ENSt8__detail9_IdentityESt8equal_toIS5_ESt4hashIS5_ENS7_18_Mod_range_hashingENS7_20_Default_ranged_hashENS7_20_Prime_rehash_policyENS7_17_Hashtable_traitsILb1ELb1ELb1EEEE4sizeEv, symObjAddr: 0x1790, symBinAddr: 0x100012BB4, symSize: 0x18 }
  - { offset: 0x6B4FB, size: 0x8, addend: 0x0, symName: __ZNSt10_HashtableINSt7__cxx1112basic_stringIcSt11char_traitsIcESaIcEEES5_SaIS5_ENSt8__detail9_IdentityESt8equal_toIS5_ESt4hashIS5_ENS7_18_Mod_range_hashingENS7_20_Default_ranged_hashENS7_20_Prime_rehash_policyENS7_17_Hashtable_traitsILb1ELb1ELb1EEEE9_M_insertIRKS5_NS7_10_AllocNodeISaINS7_10_Hash_nodeIS5_Lb1EEEEEEEESt4pairINS7_14_Node_iteratorIS5_Lb1ELb1EEEbEOT_RKT0_St17integral_constantIbLb1EE, symObjAddr: 0x174C, symBinAddr: 0x100012B70, symSize: 0x44 }
  - { offset: 0x6B583, size: 0x8, addend: 0x0, symName: __ZNSt8__detail10_AllocNodeISaINS_10_Hash_nodeINSt7__cxx1112basic_stringIcSt11char_traitsIcESaIcEEELb1EEEEEC1ERNS_16_Hashtable_allocIS9_EE, symObjAddr: 0x1728, symBinAddr: 0x100012B4C, symSize: 0x24 }
  - { offset: 0x6B5AF, size: 0x8, addend: 0x0, symName: __ZNSt8__detail12_Insert_baseINSt7__cxx1112basic_stringIcSt11char_traitsIcESaIcEEES6_SaIS6_ENS_9_IdentityESt8equal_toIS6_ESt4hashIS6_ENS_18_Mod_range_hashingENS_20_Default_ranged_hashENS_20_Prime_rehash_policyENS_17_Hashtable_traitsILb1ELb1ELb1EEEE20_M_conjure_hashtableEv, symObjAddr: 0x1714, symBinAddr: 0x100012B38, symSize: 0x14 }
  - { offset: 0x6B5D4, size: 0x8, addend: 0x0, symName: __ZNSt10_HashtableINSt7__cxx1112basic_stringIcSt11char_traitsIcESaIcEEESt4pairIKS5_P5ValueESaISA_ENSt8__detail10_Select1stESt8equal_toIS5_ESt4hashIS5_ENSC_18_Mod_range_hashingENSC_20_Default_ranged_hashENSC_20_Prime_rehash_policyENSC_17_Hashtable_traitsILb1ELb0ELb1EEEE22__small_size_thresholdEv, symObjAddr: 0x135C, symBinAddr: 0x100012B24, symSize: 0x14 }
  - { offset: 0x6B5EF, size: 0x8, addend: 0x0, symName: __ZNKSt10_HashtableINSt7__cxx1112basic_stringIcSt11char_traitsIcESaIcEEESt4pairIKS5_P5ValueESaISA_ENSt8__detail10_Select1stESt8equal_toIS5_ESt4hashIS5_ENSC_18_Mod_range_hashingENSC_20_Default_ranged_hashENSC_20_Prime_rehash_policyENSC_17_Hashtable_traitsILb1ELb0ELb1EEEE4sizeEv, symObjAddr: 0x1344, symBinAddr: 0x100012B0C, symSize: 0x18 }
  - { offset: 0x6B617, size: 0x8, addend: 0x0, symName: __ZNSt10_HashtableINSt7__cxx1112basic_stringIcSt11char_traitsIcESaIcEEES5_SaIS5_ENSt8__detail9_IdentityESt8equal_toIS5_ESt4hashIS5_ENS7_18_Mod_range_hashingENS7_20_Default_ranged_hashENS7_20_Prime_rehash_policyENS7_17_Hashtable_traitsILb1ELb1ELb1EEEE3endEv, symObjAddr: 0x1320, symBinAddr: 0x100012AE8, symSize: 0x24 }
  - { offset: 0x6B63F, size: 0x8, addend: 0x0, symName: __ZNSt10_HashtableINSt7__cxx1112basic_stringIcSt11char_traitsIcESaIcEEES5_SaIS5_ENSt8__detail9_IdentityESt8equal_toIS5_ESt4hashIS5_ENS7_18_Mod_range_hashingENS7_20_Default_ranged_hashENS7_20_Prime_rehash_policyENS7_17_Hashtable_traitsILb1ELb1ELb1EEEE4findERKS5_, symObjAddr: 0x1228, symBinAddr: 0x1000129F0, symSize: 0xF8 }
  - { offset: 0x6B6BE, size: 0x8, addend: 0x0, symName: __ZNSt8__detail12_Insert_baseINSt7__cxx1112basic_stringIcSt11char_traitsIcESaIcEEES6_SaIS6_ENS_9_IdentityESt8equal_toIS6_ESt4hashIS6_ENS_18_Mod_range_hashingENS_20_Default_ranged_hashENS_20_Prime_rehash_policyENS_17_Hashtable_traitsILb1ELb1ELb1EEEE6insertERKS6_, symObjAddr: 0x11D8, symBinAddr: 0x1000129A0, symSize: 0x50 }
  - { offset: 0x6B719, size: 0x8, addend: 0x0, symName: __ZNSt10_HashtableINSt7__cxx1112basic_stringIcSt11char_traitsIcESaIcEEESt4pairIKS5_P5ValueESaISA_ENSt8__detail10_Select1stESt8equal_toIS5_ESt4hashIS5_ENSC_18_Mod_range_hashingENSC_20_Default_ranged_hashENSC_20_Prime_rehash_policyENSC_17_Hashtable_traitsILb1ELb0ELb1EEEE4findERS7_, symObjAddr: 0xF9C, symBinAddr: 0x1000128A8, symSize: 0xF8 }
  - { offset: 0x6B79B, size: 0x8, addend: 0x0, symName: __ZSt7forwardIbEOT_RNSt16remove_referenceIS0_E4typeE, symObjAddr: 0xF88, symBinAddr: 0x100012894, symSize: 0x14 }
  - { offset: 0x6B7E6, size: 0x8, addend: 0x0, symName: __ZNSt8__detailneERKNS_19_Node_iterator_baseINSt7__cxx1112basic_stringIcSt11char_traitsIcESaIcEEELb1EEES9_, symObjAddr: 0xDBC, symBinAddr: 0x100012864, symSize: 0x30 }
  - { offset: 0x6B824, size: 0x8, addend: 0x0, symName: __ZNSt13unordered_setINSt7__cxx1112basic_stringIcSt11char_traitsIcESaIcEEESt4hashIS5_ESt8equal_toIS5_ESaIS5_EE3endEv, symObjAddr: 0xDA0, symBinAddr: 0x100012848, symSize: 0x1C }
  - { offset: 0x6B84C, size: 0x8, addend: 0x0, symName: __ZNSt13unordered_setINSt7__cxx1112basic_stringIcSt11char_traitsIcESaIcEEESt4hashIS5_ESt8equal_toIS5_ESaIS5_EE4findERKS5_, symObjAddr: 0xD7C, symBinAddr: 0x100012824, symSize: 0x24 }
  - { offset: 0x6B885, size: 0x8, addend: 0x0, symName: __ZNSt13unordered_setINSt7__cxx1112basic_stringIcSt11char_traitsIcESaIcEEESt4hashIS5_ESt8equal_toIS5_ESaIS5_EE6insertERKS5_, symObjAddr: 0xD58, symBinAddr: 0x100012800, symSize: 0x24 }
  - { offset: 0x6B8BE, size: 0x8, addend: 0x0, symName: __ZNSt13unordered_mapINSt7__cxx1112basic_stringIcSt11char_traitsIcESaIcEEEP5ValueSt4hashIS5_ESt8equal_toIS5_ESaISt4pairIKS5_S7_EEE4findERSD_, symObjAddr: 0xCC4, symBinAddr: 0x1000127DC, symSize: 0x24 }
  - { offset: 0x6B92C, size: 0x8, addend: 0x0, symName: __Z11InitNativesP3Env, symObjAddr: 0x880, symBinAddr: 0x1000124B8, symSize: 0x324 }
  - { offset: 0x6BBD6, size: 0x8, addend: 0x0, symName: __Z9Make_Nullv, symObjAddr: 0x81C, symBinAddr: 0x100012454, symSize: 0x64 }
  - { offset: 0x6BBF9, size: 0x8, addend: 0x0, symName: __Z9Make_Boolb, symObjAddr: 0x734, symBinAddr: 0x100012410, symSize: 0x44 }
  - { offset: 0x6BC50, size: 0x8, addend: 0x0, symName: __ZN9BoolValueC1Ev, symObjAddr: 0x6F4, symBinAddr: 0x1000123D0, symSize: 0x40 }
  - { offset: 0x6BC7C, size: 0x8, addend: 0x0, symName: __Z11Make_Numbere, symObjAddr: 0x6B0, symBinAddr: 0x10001238C, symSize: 0x44 }
  - { offset: 0x6BCBB, size: 0x8, addend: 0x0, symName: __ZN3Env9lookUpVarENSt7__cxx1112basic_stringIcSt11char_traitsIcESaIcEEE, symObjAddr: 0x54C, symBinAddr: 0x100012318, symSize: 0x74 }
  - { offset: 0x6BD07, size: 0x8, addend: 0x0, symName: __ZN3Env7resolveENSt7__cxx1112basic_stringIcSt11char_traitsIcESaIcEEE, symObjAddr: 0x450, symBinAddr: 0x10001221C, symSize: 0xFC }
  - { offset: 0x6BD43, size: 0x8, addend: 0x0, symName: __ZN3Env9assignVarENSt7__cxx1112basic_stringIcSt11char_traitsIcESaIcEEEP5Value, symObjAddr: 0x370, symBinAddr: 0x10001213C, symSize: 0xE0 }
  - { offset: 0x6BDA1, size: 0x8, addend: 0x0, symName: __ZN3Env10declareVarENSt7__cxx1112basic_stringIcSt11char_traitsIcESaIcEEEP5Valueb, symObjAddr: 0x2A8, symBinAddr: 0x100012074, symSize: 0xC8 }
  - { offset: 0x6BDF7, size: 0x8, addend: 0x0, symName: __ZNK9BoolValue7getTypeEv, symObjAddr: 0x290, symBinAddr: 0x10001205C, symSize: 0x18 }
...
